c__builtin__
set
p1
((lp2
S'communications@enron.com'
p3
aS'tgant@arm-ltd.com'
p4
aS'john.hudson@enron.com'
p5
aS'cheri.thomas@enron.com'
p6
aS'richard.pinion@enron.com'
p7
aS'christa.winfrey@enron.com'
p8
aS'paul.clayton@enron.com'
p9
aS'a..johnson@enron.com'
p10
aS'cindy.buckley@enron.com'
p11
aS'gray.calvert@enron.com'
p12
aS'oscar.rivera@enron.com'
p13
aS'shaaban.naim@enron.com'
p14
aS'berg.kathryn@enron.com'
p15
aS'jason.huang@enron.com'
p16
aS'westdesksupport@enron.com'
p17
aS'laura.luce@enron.com'
p18
aS'tj.rylander@enron.com'
p19
aS'margarita.meyer@enron.com'
p20
aS'cynthia.pearse@enron.com'
p21
aS'kysa.alport@enron.com'
p22
aS'bart.burk@enron.com'
p23
aS'karla.compean@enron.com'
p24
aS'michael.cowan@enron.com'
p25
aS'linda.w.humphrey@wgp.twc.com'
p26
aS'tracy.ngo@enron.com'
p27
aS'mmaglier@utilicorp.com'
p28
aS'p..south@enron.com'
p29
aS'kris.ransom@avistacorp.com'
p30
aS'dl-ga-all_enron_north_america@enron.com'
p31
aS'cdgray@iwc.net'
p32
aS'tony.pryor@enron.com'
p33
aS'todd.decook@enron.com'
p34
aS'dl-ga-all_ees@enron.com'
p35
aS'jancheri@aol.com'
p36
aS'feronberg@hotmail.com'
p37
aS'lmoore@avistaenergy.com'
p38
aS'cheryl.johnson@enron.com'
p39
aS'paul.simons@enron.com'
p40
aS'murrata@texaco.com'
p41
aS'lashanda.poledore@enron.com'
p42
aS'a.connolly@enron.com'
p43
aS'theresia.james@enron.com'
p44
aS'sharifak@qstr.com'
p45
aS'mohamed.elafandi@enron.com'
p46
aS'rwcd@pge.com'
p47
aS'20620-9696@williams.com'
p48
aS'brian.kolle@enron.com'
p49
aS'cindy.horn@enron.com'
p50
aS'igsinc@ix.netcom.com'
p51
aS'rwdavis@freewwweb.com'
p52
aS'kroum.kroumov@enron.com'
p53
aS'd..cisneros@enron.com'
p54
aS'kenny.soignet@enron.com'
p55
aS'daniel.reck@enron.com'
p56
aS'dolores.muzzy@enron.com'
p57
aS'jpainter@igservice.com'
p58
aS'john.lavorato@enron.com'
p59
aS'fred.kelly@enron.com'
p60
aS'f..calger@enron.com'
p61
aS'cheryl.costa@enron.com'
p62
aS'mechelle.stevens@enron.com'
p63
aS'joseph.wagner@enron.com'
p64
aS'jason.fischer@enron.com'
p65
aS'samuel.round@enron.com'
p66
aS'john.arnold@enron.com'
p67
aS'david.wharton@apachecorp.com'
p68
aS'rparry@bcm.tmc.edu'
p69
aS'jess.hewitt@enron.com'
p70
aS'kay.young@enron.com'
p71
aS'laurel.adams@enron.com'
p72
aS'katherine.herrera@enron.com'
p73
aS'miyung.buster@enron.com'
p74
aS'jennifer.fraser@enron.com'
p75
aS'james.ducote@enron.com'
p76
aS'randy.curtis@eprime.com'
p77
aS'lisa.perez@enron.com'
p78
aS'jason.moore@enron.com'
p79
aS'lisa.goulart@enron.com'
p80
aS'sheila.glover@enron.com'
p81
aS'donna.lowry@enron.com'
p82
aS'h..george@enron.com'
p83
aS'sami.arap@enron.com'
p84
aS'zdenek.gerych@enron.com'
p85
aS'ryan.l.cox@williams.com'
p86
aS'bernicker.eric@enron.com'
p87
aS'roman.zadorozhny@enron.com'
p88
aS'gwen.williams@enron.com'
p89
aS'david.oliver@enron.com'
p90
aS'rebecca.quenet@eds.com'
p91
aS'l..hernandez@enron.com'
p92
aS'cathy.lira@enron.com'
p93
aS'dona.carmony@ourclub.com'
p94
aS'browning@wasatchenergy.com'
p95
aS'clare.regalado@enron.com'
p96
aS'angelly.cindy@enron.com'
p97
aS'agcdu6@triax.com'
p98
aS'matt.motley@enron.com'
p99
aS'bora.bariman@enron.com'
p100
aS'constance.charles@enron.com'
p101
aS'cpentelichuk@txu.com'
p102
aS'clarian.lannom@enron.com'
p103
aS'raghu.burra@enron.com'
p104
aS'kyle.simson@enron.com'
p105
aS'drew.hill@enron.com'
p106
aS'suzette.emmons@enron.com'
p107
aS'scimmons.janice@epenergy.com'
p108
aS'credit'
p109
aS'vogel.jackie@enron.com'
p110
aS'scott.hendrickson@enron.com'
p111
aS'cptdougie@aol.com'
p112
aS'maria.garza@enron.com'
p113
aS'maricor.mariano@enron.com'
p114
aS'michael.seely@enron.com'
p115
aS'juan.pazos@enron.com'
p116
aS'ryan.hinze@enron.com'
p117
aS'gordon.savage@enron.com'
p118
aS'steve.wang@enron.com'
p119
aS'rob.wheeler@enron.com'
p120
aS'sara.novosel@enron.com'
p121
aS'richard.mckeel@enron.com'
p122
aS'trb@ux7.sp.cs.cmu.edu'
p123
aS'carrie.southard@enron.com'
p124
aS'nostrauno@aol.com'
p125
aS's..muller@enron.com'
p126
aS'20531-5470@williams.com'
p127
aS'legal <.taylor@enron.com>'
p128
aS'lgarrett@wapa.gov'
p129
aS'geir.solberg@enron.com'
p130
aS'felipe.ospina@enron.com'
p131
aS'poruban@pasha.com'
p132
aS'susan.elledge@enron.com'
p133
aS'khristina.griffin@enron.com'
p134
aS'kevin.heal@enron.com'
p135
aS'thu.arnold@enron.com'
p136
aS'j..brancaccio@enron.com'
p137
aS'rrobins4@enron.com'
p138
aS'lpaulsen@igires.com'
p139
aS'g..bushman@enron.com'
p140
aS'dale.furrow@enron.com'
p141
aS'jr..george@enron.com'
p142
aS'dave.fuller@enron.com'
p143
aS'averill.brad@enron.com'
p144
aS'ajay.sindwani@enron.com'
p145
aS'geegee@enron.com'
p146
aS'wayne.ellis@williams.com'
p147
aS'martha.keesler@enron.com'
p148
aS'rhonda.smith@enron.com'
p149
aS'brown.lola@enron.com'
p150
aS'mike.paradise@elpaso.com'
p151
aS'colleen.sullivan@enron.com'
p152
aS'wwright@utilicorp.com'
p153
aS'brian.wood@enron.com'
p154
aS'john.zufferli@enron.com'
p155
aS'tomanddlinda@home.com'
p156
aS'benjamin.rogers@enron.com'
p157
aS'michael.frazier@enron.com'
p158
aS'reyna.cabrera@enron.com'
p159
aS'ace.roman@enron.com'
p160
aS'jeanyokoyama@cs.com'
p161
aS'karie.hastings@enron.com'
p162
aS'rgebauer@txuenergy.com'
p163
aS'yan.wang@enron.com'
p164
aS'l..dinari@enron.com'
p165
aS'seung-taek.oh@enron.com'
p166
aS'mary.cook@enron.com'
p167
aS'robert.anderson@enron.com'
p168
aS'karen.snow@enron.com'
p169
aS'schrist@enron.com'
p170
aS'torrey.moorer@enron.com'
p171
aS'20646-2391@williams.com'
p172
aS'cathy.de@enron.com'
p173
aS'rcooper@usg.com'
p174
aS'delanem@axl.ca'
p175
aS'tantra.invedy@enron.com'
p176
aS'shelia.benke@enron.com'
p177
aS'heath.kendall@enron.com'
p178
aS'hector.godoy@enron.com'
p179
aS'steve.stock@enron.com'
p180
aS'mary.grisaffi@enron.com'
p181
aS'announcements.enron@enron.com'
p182
aS'derek.lynn@enron.com'
p183
aS'john.boomer@enron.com'
p184
aS'djordan@coral-energy.com'
p185
aS'cslaman@usg.com'
p186
aS'mark.gandy@enron.com'
p187
aS'nony.flores@enron.com'
p188
aS'edward.sacks@enron.com'
p189
aS'c..kenne@enron.com'
p190
aS'y..brown@enron.com'
p191
aS'jeremy.morris@enron.com'
p192
aS'b..hearn@enron.com'
p193
aS'dayem.khandker@enron.com'
p194
aS'chris.schomer@enron.com'
p195
aS'keith.fraley@enron.com'
p196
aS'kolinge@enron.com'
p197
aS'reed.theresa@enron.com'
p198
aS'c-coates@tamu.edu'
p199
aS'anwar.melethil@enron.com'
p200
aS'christian.yoder@enron.com'
p201
aS'sanchayita.ray@enron.com'
p202
aS'dbennett@centrabc.wei.org'
p203
aS'l..miller@enron.com'
p204
aS'diana.allen@enron.com'
p205
aS'brandon_l_dyer@reliantenergy.com'
p206
aS'chrisey@ccsalpha3.nrl.navy.mil'
p207
aS'mary.heinitz@enron.com'
p208
aS'henry.emery@ubspainewebber.com'
p209
aS'linda.ewing@enron.com'
p210
aS'chris.ordway@enron.com'
p211
aS'heather.dunton@enron.com'
p212
aS'sabra.dinari@enron.com'
p213
aS'gary.lamphier@enron.com'
p214
aS'love2btender@aol.com'
p215
aS'nadege.assale@enron.com'
p216
aS'serena.bishop@merant.com'
p217
aS'jesse.bryson@enron.com'
p218
aS'fermis@enron.com'
p219
aS'sanjeev.gupta@enron.com'
p220
aS'lynn.shivers@enron.com'
p221
aS'dan.junek@enron.com'
p222
aS'todd.hall@enron.com'
p223
aS'william.krenz@enron.com'
p224
aS'c..knightstep@enron.com'
p225
aS'strother.laurie@enron.com'
p226
aS'a..allen@enron.com'
p227
aS'melanie.hutchinson@enron.com'
p228
aS'lamar.frazier@enron.com'
p229
aS'lynnette.stauber@powerex.com'
p230
aS'e..crady@enron.com'
p231
aS'elena.chilkina@enron.com'
p232
aS'jerret_sykes@mhhs.org'
p233
aS'samuel.pak@enron.com'
p234
aS'donald.robinson@enron.com'
p235
aS'deborah.merril@enron.com'
p236
aS'aarati.sivasubramanian@enron.com'
p237
aS'dick.winters@avistacorp.com'
p238
aS'ron.nolte@enron.com'
p239
aS'bjorn.hagelmann@enron.com'
p240
aS'keith.braswell@enron.com'
p241
aS'david.gaines@enron.com'
p242
aS'marlene.devotto@enron.com'
p243
aS'priese.debbie@enron.com'
p244
aS'donna.sander@enron.com'
p245
aS'remi.collonges@enron.com'
p246
aS'marcus.nettelton@enron.com'
p247
aS'bnunley@peppersnet.com'
p248
aS'w..haas@enron.com'
p249
aS'jonangas@attglobal.net'
p250
aS'ajangula@mtpower.com'
p251
aS'jglaubi@smud.org'
p252
aS'andre.white@enron.com'
p253
aS'frank.hayden@enron.com'
p254
aS'dan.lyons@enron.com'
p255
aS'mira.arnold@enron.com'
p256
aS'jsanders@clarkpud.com'
p257
aS'paul.schiavone@enron.com'
p258
aS'dgallacher@brr.com'
p259
aS'peter.chung@enron.com'
p260
aS'20451-9204@williams.com'
p261
aS'steve.richman@enron.com'
p262
aS'laurel.bolt@enron.com'
p263
aS'sivakumar.govindasamy@enron.com'
p264
aS'jes6722@idahopower.com'
p265
aS'jenny.latham@enron.com'
p266
aS'greg.carlson@enron.com'
p267
aS'binh.pham@enron.com'
p268
aS'stanton.ray@enron.com'
p269
aS'jcattermole@pcenergy.com'
p270
aS'jon.chapman@enron.com'
p271
aS'michelle.hicks@enron.com'
p272
aS'lisa.trofholz@enron.com'
p273
aS'stelly.dianne@enron.com'
p274
aS'kkeiser@ect.enron.com'
p275
aS'harry.collins@enron.com'
p276
aS'sue.vasan@enron.com'
p277
aS'linda.vargo@enron.com'
p278
aS'trading'
p279
aS'daniel.lisk@enron.com'
p280
aS'majed.limam@enron.com'
p281
aS'charlotte.kraham@enron.com'
p282
aS'ggalbraith@tuscaroragas.com'
p283
aS'pkeener@ci.redding.ca.us'
p284
aS'cweyman@astraoil.com'
p285
aS'mike.swerzbin@enron.com'
p286
aS'timesheets@iconconsultants.com'
p287
aS'e25717@personal.ro'
p288
aS'tara.piazze@enron.com'
p289
aS'ejohnsto@utilicorp.com'
p290
aS'adam.bayer@enron.com'
p291
aS'gregg.penman@enron.com'
p292
aS'rob_findlay@transalta.com'
p293
aS'don.black@enron.com'
p294
aS'maria.valdes@enron.com'
p295
aS'gabriel.monroy@enron.com'
p296
aS'allen.joe@enron.com'
p297
aS'5.jeffpl@gte.net'
p298
aS'john_emley@udscorp.com'
p299
aS'pool.smiley@enron.com'
p300
aS'nezi.marvin@enron.com'
p301
aS'brian.durning@pacificorp.com'
p302
aS'adrial.boals@enron.com'
p303
aS'llarson@mtpower.com'
p304
aS'ccunning@cngc.com'
p305
aS'son.nguyen@enron.com'
p306
aS'david.eubanks@enron.com'
p307
aS'haroon.hafeez@enron.com'
p308
aS'beagyrl@hotmail.com'
p309
aS'dtencellent@prebon.com'
p310
aS'fred.scott@engageenergy.com'
p311
aS'lisa.mellencamp@enron.com'
p312
aS'rishikawa@pacent.com'
p313
aS'maki.sean@enron.com'
p314
aS'karen.v.peterson@williams.com'
p315
aS'ruth.concannon@enron.com'
p316
aS'g..rigby@enron.com'
p317
aS'lesli.campbell@enron.com'
p318
aS'skatz@sempratrading.com'
p319
aS'scott.goodell@enron.com'
p320
aS'bsalak@westerngas.com'
p321
aS'40enron@enron.com'
p322
aS'abhijeet.naik@enron.com'
p323
aS'virawan.yawapongsiri@enron.com'
p324
aS'michael.simmons@enron.com'
p325
aS'mgmtwilliams@aol.com'
p326
aS'anastasia.aourik@enron.com'
p327
aS'jivko.savov@enron.com'
p328
aS'dennis.benevides@enron.com'
p329
aS'anne.beylin@enron.com'
p330
aS'12640@enron.com'
p331
aS'jitendra.patel@enron.com'
p332
aS'chuck_waitman@udscorp.com'
p333
aS'julie@enron.com'
p334
aS'steve.van@enron.com'
p335
aS'jeff.richter@enron.com'
p336
aS'jspell@puget.com'
p337
aS'blake.walker@enron.com'
p338
aS'corina.taylor@enron.com'
p339
aS'lex.carroll@enron.com'
p340
aS'pearce.hammond@enron.com'
p341
aS'f..brawner@enron.com'
p342
aS'ann.white@enron.com'
p343
aS'a..hueter@enron.com'
p344
aS'thomptn@texaco.com'
p345
aS's_r_hemmeline@email.mobil.com'
p346
aS'mrana@socalgas.com'
p347
aS'judy.martinez@enron.com'
p348
aS'jimmy.simien@enron.com'
p349
aS'mclark@dgs.ca.gov'
p350
aS'c.will@enron.com'
p351
aS'ian.salmon@enron.com'
p352
aS'denisse.guzman@enron.com'
p353
aS's..olinger@enron.com'
p354
aS'joe.hunter@enron.com'
p355
aS'kenneth.oliva@enron.com'
p356
aS'mike.cowan@enron.com'
p357
aS'bradflegel@aec.ca'
p358
aS'sharon.hausinger@enron.com'
p359
aS'james.regan@enron.com'
p360
aS'richard.vincent@enron.com'
p361
aS'cynthia.clark@enron.com'
p362
aS'livia_zufferli@monitor.com'
p363
aS'jason.stephens@enron.com'
p364
aS'theresa.toward@enron.com'
p365
aS'chris.bowling@enron.com'
p366
aS'paul.lebeau@enron.com'
p367
aS'abbyb@usgt.com'
p368
aS'janderson@clarkpud.com'
p369
aS'paul.lucci@enron.com'
p370
aS'jeremy.mills@enron.com'
p371
aS'kayla.heitmeyer@enron.com'
p372
aS'avinash.jain@enron.com'
p373
aS'kendra.terhune@enron.com'
p374
aS'donna.fulton@enron.com'
p375
aS'c.scott@enron.com'
p376
aS'karla.azevedo@enron.com'
p377
aS'catalina.cardenas@enron.com'
p378
aS'james.lacerte@coastalcorp.com'
p379
aS'dan.kirtane@enron.com'
p380
aS'john.hogan@southernenergy.com'
p381
aS'20629-8285@williams.com'
p382
aS'aamir.maniar@enron.com'
p383
aS'k.gross@enron.com'
p384
aS'devon.williams@enron.com'
p385
aS'r..rogers@enron.com'
p386
aS'jim.newgard@enron.com'
p387
aS'sylvia.s.pollan@enron.com'
p388
aS'ted.ballinger@enron.com'
p389
aS'merrill.barlow@enron.com'
p390
aS'billy.dorsey@enron.com'
p391
aS'wayne.mays@enron.com'
p392
aS'peter.ward@enron.com'
p393
aS'dodson.mark@enron.com'
p394
aS'koenig.andrew@enron.com'
p395
aS'charles.nelson@enron.com'
p396
aS'erik.simpson@enron.com'
p397
aS'ursula.brenner@enron.com'
p398
aS'georgi.landau@enron.com'
p399
aS'carole.frank@enron.com'
p400
aS'doloresbriggs@aol.com'
p401
aS'paul.dawson@enron.com'
p402
aS'marlo.james@enron.com'
p403
aS'shelley.plauche@enron.com'
p404
aS'l..schrab@enron.com'
p405
aS'judy.thorne@enron.com'
p406
aS'debra.hicks@enron.com'
p407
aS'cfrandsen@avistacorp.com'
p408
aS'maryhelen.martinez@enron.com'
p409
aS'brock.bryan@enron.com'
p410
aS'keith.comeaux@enron.com'
p411
aS'susan.pereira@enron.com'
p412
aS'anthony.moon@enron.com'
p413
aS'britaldo.soares@enron.com'
p414
aS'dholtkamp@sagomail.tamu.edu'
p415
aS'clarissa.cooper@enron.com'
p416
aS'brian.swinford@enron.com'
p417
aS'orlando.gonzalez@enron.com'
p418
aS'shannon.groenewold@enron.com'
p419
aS'brpc@ruraltel.net'
p420
aS'a..robison@enron.com'
p421
aS'cbulf@oneok.com'
p422
aS'ellen.wallumrod@enron.com'
p423
aS'kimberly.hardy@enron.com'
p424
aS'miki.bode@williams.com'
p425
aS'ljs6@pge.com'
p426
aS'bullington.boone@enron.com'
p427
aS'willis.philip@enron.com'
p428
aS'mcelligot.kim@enron.com'
p429
aS'jeff.n.leishman@williams.com'
p430
aS'photomail@filmworks.com'
p431
aS'david.marye@enron.com'
p432
aS'legal.6@enron.com'
p433
aS'doraisba@bp.com'
p434
aS'emharris@dow.com'
p435
aS'm..grace@enron.com'
p436
aS'ddanyluk@enserco.com'
p437
aS'kim.theriot@enron.com'
p438
aS'c..bland@enron.com'
p439
aS'wdmccabe@west.net'
p440
aS'charles.delacey@enron.com'
p441
aS'mquinlan@oneok.com'
p442
aS'dstjean@tosco.com'
p443
aS'segun.ariyo@enron.com'
p444
aS'zachary.sampson@enron.com'
p445
aS'hls@nwnatural.com'
p446
aS'clk@tid.org'
p447
aS'jim.desrochers@enron.com'
p448
aS'chris.mumm@enron.com'
p449
aS'lauri.allen@enron.com'
p450
aS'rebecca.torres@enron.com'
p451
aS'bobngg@webtv.net'
p452
aS'david.forster@enron.com'
p453
aS'kimberly.hundl@enron.com'
p454
aS'matthew.almy@enron.com'
p455
aS'eugene.lee@enron.com'
p456
aS'kfhampton@marathonoil.com'
p457
aS'rajneesh.salhotra@enron.com'
p458
aS'vijay.gadhavi@enron.com'
p459
aS'rebecca.mcdonald@enron.com'
p460
aS'alton.jackson@enron.com'
p461
aS'richard.johnson@enron.com'
p462
aS'albane.perinne@enron.com'
p463
aS'kourtney.nelson@enron.com'
p464
aS'jon.trevelise@enron.com'
p465
aS'eric.gadd@enron.com'
p466
aS'gue.laura@enron.com'
p467
aS'andrew.hawthorn@enron.com'
p468
aS'andrew.conner@enron.com'
p469
aS'enron.announcement@enron.com'
p470
aS'florian.neubauer@enron.com'
p471
aS'dave.dungan@weyerhaeuser.com'
p472
aS'm..forney@enron.com'
p473
aS'bill.harte@usa.xerox.com'
p474
aS'joe.kishkill@enron.com'
p475
aS'steve.kos@enron.com'
p476
aS'larry.jester@enron.com'
p477
aS'michael.pritchard@enron.com'
p478
aS'debbie.brackett@enron.com'
p479
aS'ava.stovall@enron.com'
p480
aS'sandra.sharp@enron.com'
p481
aS'dmlmc@aol.com'
p482
aS'aaron.berutti@enron.com'
p483
aS'chad.clark@enron.com'
p484
aS'kay.mann@enron.com'
p485
aS's..landry@enron.com'
p486
aS'lester.rawson@enron.com'
p487
aS'james.studdert@enron.com'
p488
aS'gerardo.benitez@enron.com'
p489
aS'vaughan.charles@enron.com'
p490
aS'k.ishaq@enron.com'
p491
aS'paul.kaufman@enron.com'
p492
aS'teresa.mira@enron.com'
p493
aS'sarah.wesner@enron.com'
p494
aS'kelly.heuertz@enron.com'
p495
aS'jim@pciut.com'
p496
aS'gregs@mid.org'
p497
aS'glen@wasatchenergy.com'
p498
aS't..hodge@enron.com'
p499
aS'pschmidt@kimballresources.com'
p500
aS'gerald.lofton@enron.com'
p501
aS'don.hammond@enron.com'
p502
aS'dave@daveschnake.reno.nv.us'
p503
aS'tom.hahn@apbenergy.com'
p504
aS'matt.pena@enron.com'
p505
aS'ebony.watts@enron.com'
p506
aS'sbrewer@enron.com'
p507
aS'karthik.rajan@enron.com'
p508
aS'fernando.herrera@enron.com'
p509
aS't.hoskins@enron.com'
p510
aS'tim.despain@enron.com'
p511
aS'richard.tomaski@enron.com'
p512
aS'richard.lassander@enron.com'
p513
aS'will.smith@enron.com'
p514
aS'michael.belmont@enron.com'
p515
aS'johnson.glenn@enron.com'
p516
aS'karen.lambert@enron.com'
p517
aS'david.frost@enron.com'
p518
aS'a..summerford@enron.com'
p519
aS'dparque@enron.com'
p520
aS'stephen.plauche@enron.com'
p521
aS'h..moore@enron.com'
p522
aS'stacyj7288@aol.com'
p523
aS'bryant.frihart@enron.com'
p524
aS'shamilton@houston.rr.com'
p525
aS'chris.hyde@enron.com'
p526
aS'elizabeth.peters@enron.com'
p527
aS'gary.justice@enron.com'
p528
aS'jeffrey.c.hammond@wgp.twc.com'
p529
aS'tim.heizenrader@enron.com'
p530
aS'aschwartz@enron.com'
p531
aS'rivera.carlos@enron.com'
p532
aS'rouse.doug@enron.com'
p533
aS'taylords@bp.com'
p534
aS'diane.ellstrom@enron.com'
p535
aS'hayesm@energystore.net'
p536
aS'mary.dove@enron.com'
p537
aS'cynthia_allen@roundrockisd.org'
p538
aS'stephanie.erwin@enron.com'
p539
aS'beth.apollo@enron.com'
p540
aS'ejjaroch@marathonoil.com'
p541
aS'caroline.emmert@enron.com'
p542
aS'tori.kuykendall@enron.com'
p543
aS'gulay.soykok@enron.com'
p544
aS'nathan.creech@enron.com'
p545
aS'vincent.wagner@enron.com'
p546
aS'jesse.villarreal@enron.com'
p547
aS'jay.reitmeyer@enron.com'
p548
aS'virginia.thompson@enron.com'
p549
aS'modisett-wilson@prodigy.net'
p550
aS'suzy.robey@enron.com'
p551
aS'kshireman@enron.com'
p552
aS'hankg@ngtsllc.com'
p553
aS'mkent@br-inc.com'
p554
aS'jason.thompkins@enron.com'
p555
aS'michael.brown@enron.com'
p556
aS'stan.gray@enron.com'
p557
aS'leo.weaver@edwards.af.mil'
p558
aS'nfmc@idcomm.com'
p559
aS'ben.freeman@enron.com'
p560
aS'noha.kasrawi@enron.com'
p561
aS'n..gilbert@enron.com'
p562
aS'john.sherriff@enron.com'
p563
aS'eric.feitler@enron.com'
p564
aS'msanche2@enron.com'
p565
aS'daniel.quezada@enron.com'
p566
aS'kathryn.sheppard@enron.com'
p567
aS'christina.bangle@enron.com'
p568
aS'carrie.slagle@enron.com'
p569
aS'sean.crandall@enron.com'
p570
aS'shawna.flynn@enron.com'
p571
aS'kathy.puls@engageenergy.com'
p572
aS'lreid@sppc.com'
p573
aS'gastrdr@aol.com'
p574
aS'mbutler@tristargas.com'
p575
aS'john.suttle@enron.com'
p576
aS'romeo.dsouza@enron.com'
p577
aS'olalekan.oladeji@enron.com'
p578
aS'andrea.woodland@enron.com'
p579
aS'diane.cutsforth@enron.com'
p580
aS'weissfamily5@aol.com'
p581
aS'bokenfke@bp.com'
p582
aS'kathy@itcoworld.com'
p583
aS'bouse@enron.com'
p584
aS'jroyed@ev1.net'
p585
aS'maggie.matheson@enron.com'
p586
aS'shelly.friesenhahn@enron.com'
p587
aS'project.gem@enron.com'
p588
aS'hotwheel@houston.rr.com'
p589
aS'kenton.erwin@enron.com'
p590
aS'sidrac.flores@enron.com'
p591
aS'frank.ermis@enron.com'
p592
aS'rony@panalberta.com'
p593
aS'kimberly.bates@enron.com'
p594
aS'carlos.sole@enron.com'
p595
aS'r..brackett@enron.com'
p596
aS'tanya.rohauer@enron.com'
p597
aS'james.simpson@enron.com'
p598
aS'victoria.sorkina@enron.com'
p599
aS'pabercrombie@txuenergy.com'
p600
aS'mitravichr@epenergy.com'
p601
aS'sean.bolks@enron.com'
p602
aS'tana.jones@enron.com'
p603
aS'fermis@hotmail.com'
p604
aS'troysmith@upr.com'
p605
aS'jose.linardi@enron.com'
p606
aS'twanda.sweet@enron.com'
p607
aS'carl.tricoli@enron.com'
p608
aS'juan.padron@enron.com'
p609
aS'sramsey@coral-energy.com'
p610
aS'martin.cuilla@enron.com'
p611
aS'stacy.e.dickson@enron.com'
p612
aS'angela.davis@enron.com'
p613
aS'christi.l.nicolay@enron.com'
p614
aS'fblack@greerherz.com'
p615
aS'darin.talley@enron.com'
p616
aS'lbenet@satx.rr.com'
p617
aS'bcr345@aol.com'
p618
aS'shelleybrown727@juno.com'
p619
aS'm..king@enron.com'
p620
aS'wilson.susie@enron.com'
p621
aS'michaelbennett@aec.ca'
p622
aS'bert.meyers@enron.com'
p623
aS'gcalgascontrol@bp.com'
p624
aS'/o=enron/ou=na/cn=recipients/cn=notesaddr/cn=a478079f-55e1f3b0-862566fa-612229@enron.com'
p625
aS'dmyers@enserco.com'
p626
aS'max.kelly@enron.com'
p627
aS'20834-3069@williams.com'
p628
aS'jennifer.blay@enron.com'
p629
aS'20507-6541@williams.com'
p630
aS'deb.korkmas@enron.com'
p631
aS'amy.fitzpatrick@enron.com'
p632
aS'nthomas@utilicorp.com'
p633
aS'mcclure.gracie@enron.com'
p634
aS'mbeckner@utilicorp.com'
p635
aS'officeofthechairman2@enron.com'
p636
aS'ian.sloman@enron.com'
p637
aS'brad.guilmino@enron.com'
p638
aS'charles.yeung@enron.com'
p639
aS'rebecca.phillips@enron.com'
p640
aS'norma.yeverino@enron.com'
p641
aS'poec@yahoo.com'
p642
aS'julia.murray@enron.com'
p643
aS'w..pereira@enron.com'
p644
aS'sarah.taylor@enron.com'
p645
aS'marc.sabine@enron.com'
p646
aS'travis.mccullough@enron.com'
p647
aS'darcy_cole@transcanada.com'
p648
aS'matt.lorenz@enron.com'
p649
aS'priese.dennis@enron.com'
p650
aS'jodi.thrasher@enron.com'
p651
aS'lmcegenergy@sk.sympatico.ca'
p652
aS'spacecity-dsp@yahoogroups.com'
p653
aS'beau.ratliff@enron.com'
p654
aS'schick.ana@enron.com'
p655
aS'anita.martin@enron.com'
p656
aS't..muzzy@enron.com'
p657
aS'kathleen.carnahan@enron.com'
p658
aS'jemeni.clancy@enron.com'
p659
aS'ron.coker@enron.com'
p660
aS'a..campos@enron.com'
p661
aS'beathrw@bp.com'
p662
aS'brian.hendon@enron.com'
p663
aS'lwebner@ect.enron.com'
p664
aS'users4.dl-enron@enron.com'
p665
aS'john_trimble@kmmktg.com'
p666
aS'felipe.jens@enron.com'
p667
aS'chad.south@enron.com'
p668
aS'sghill@bcgas.com'
p669
aS'jheller@utilicorp.com'
p670
aS'richard.orellana@enron.com'
p671
aS'breakingnews@mail.cnn.com'
p672
aS'edis.hobson@enron.com'
p673
aS'eric.gillaspie@enron.com'
p674
aS'peaceandlove@msn.com'
p675
aS'dorothy_mersereau@br-inc.ca'
p676
aS'sri@gvtc.com'
p677
aS'jim.gilbert@enron.com'
p678
aS'anna.santucci@enron.com'
p679
aS'mark.symms@enron.com'
p680
aS'ctaylor@txuenergy.com'
p681
aS'linbeck.patrick@enron.com'
p682
aS'daniel.ferrell@enron.com'
p683
aS'stephen.thome@enron.com'
p684
aS'yourfriends@maildb.bluemountainarts.com'
p685
aS'dreyer.zoann@enron.com'
p686
aS'kwhite@pcenergy.com'
p687
aS'bgarrett@mtpower.com'
p688
aS'iona.maclean@enron.com'
p689
aS'tracy.davis@enron.com'
p690
aS'justin.omalley@enron.com'
p691
aS'zhuoming.lou@enron.com'
p692
aS'meera.natarajan@enron.com'
p693
aS'sean.riordan@enron.com'
p694
aS'jkimberly@avistacorp.com'
p695
aS'ben.nguyen@enron.com'
p696
aS'kjohnson@pcenergy.com'
p697
aS'theresa.villeggiante@enron.com'
p698
aS'katina.smith@enron.com'
p699
aS'andrew.greer@enron.com'
p700
aS'kelly.brodbeck@enron.com'
p701
aS'm..driscoll@enron.com'
p702
aS'raiford.smith@enron.com'
p703
aS'melissa.ratnala@enron.com'
p704
aS'ochsnjd@texaco.com'
p705
aS'20568-3250@williams.com'
p706
aS'elberg.gelin@enron.com'
p707
aS'margaret.rhee@enron.com'
p708
aS'linda.sietzema@enron.com'
p709
aS'amy.clemons@enron.com'
p710
aS'frank.vickers@enron.com'
p711
aS'ethan.schultz@enron.com'
p712
aS'central.communication@enron.com'
p713
aS'tandra.coleman@enron.com'
p714
aS'weezie.roberson@enron.com'
p715
aS'cards@wdni.com'
p716
aS'spjutd2@wdni.com'
p717
aS'jennifer.richard@enron.com'
p718
aS'paul.wierbicki@enron.com'
p719
aS'brent.hendry@enron.com'
p720
aS'esmeralda.gonzalez@enron.com'
p721
aS'duong.luu@enron.com'
p722
aS'mhg2@pge.com'
p723
aS'bblanar@coral-energy.com'
p724
aS'mary.border@enron.com'
p725
aS'phil.motuzko@enron.com'
p726
aS'smclaughlin@enserco.com'
p727
aS'golding.chris@enron.com'
p728
aS'javier.gomez@enron.com'
p729
aS'hagar.kedem@enron.com'
p730
aS'kbradley@reliantenergy.com'
p731
aS'gavin.dillingham@enron.com'
p732
aS'ryan.siurek@enron.com'
p733
aS'richard.ring@enron.com'
p734
aS'michael.taylor@enron.com'
p735
aS'hector.alviar@enron.com'
p736
aS'jay.webb@enron.com'
p737
aS'eddy.daniels@enron.com'
p738
aS'matthew.fleming@enron.com'
p739
aS'farouk.lalji@enron.com'
p740
aS'kristin.cantu@enron.com'
p741
aS'catherine.pernot@enron.com'
p742
aS'mark.fillinger@enron.com'
p743
aS'rplatt@duke-energy.com'
p744
aS'rmckay@zianet.com'
p745
aS'm..tholt@enron.com'
p746
aS'fran.chang@enron.com'
p747
aS'denver.plachy@enron.com'
p748
aS'm..hall@enron.com'
p749
aS'chuck.ames@enron.com'
p750
aS'brook@coral-energy.com'
p751
aS'rita.wynne@enron.com'
p752
aS'chris.stokley@enron.com'
p753
aS'matilda.machado@enron.com'
p754
aS'craig.breslau@enron.com'
p755
aS'brentbalog@aec.ca'
p756
aS'clinton.anderson@enron.com'
p757
aS'gary_o_weaver@dom.com'
p758
aS'duncan.mccaig@enron.com'
p759
aS'legal <.hall@enron.com>'
p760
aS'gupta.ashok@enron.com'
p761
aS'kathy.bigelow@enron.com'
p762
aS'buser.deb@enron.com'
p763
aS'lance.cunningham@enron.com'
p764
aS'david.dronet@enron.com'
p765
aS'curtis.cormier@enron.com'
p766
aS'20331-5333@williams.com'
p767
aS'todddustman@prodigy.net'
p768
aS'cathy.wang@enron.com'
p769
aS'lynn.brannon@enron.com'
p770
aS's..sanchez@enron.com'
p771
aS'kh16@juno.com'
p772
aS'colleen.koenig@enron.com'
p773
aS'daniel.vargas@enron.com'
p774
aS'marcyb623@aol.com'
p775
aS'ryan.orourke@enron.com'
p776
aS'wng@fpl.com'
p777
aS'ctaylor@ci.burbank.ca.us'
p778
aS'laura.podurgiel@enron.com'
p779
aS'robin.hill@enron.com'
p780
aS'clifford.nash@enron.com'
p781
aS'mlarsen@duke-energy.com'
p782
aS'christy.wussow@enron.com'
p783
aS'peters.valerie@enron.com'
p784
aS'lushadow@aol.com'
p785
aS'krweaber@pfdj.com'
p786
aS'liz.prior@enron.com'
p787
aS'szablya@enron.com'
p788
aS'brian.riley@enron.com'
p789
aS'cara.semperger@enron.com'
p790
aS'ganapathy.ramesh@enron.com'
p791
aS'tom.hoatson@enron.com'
p792
aS'sean.yang@enron.com'
p793
aS'hobbs.corey@enron.com'
p794
aS'chris.figueroa@enron.com'
p795
aS'lori.nguyen@enron.com'
p796
aS'hunter.shively@enron.com'
p797
aS'jim.cole@enron.com'
p798
aS'laquesha.dillingham@enron.com'
p799
aS'todd.delahoussaye@enron.com'
p800
aS'vance.holtzman@enron.com'
p801
aS'sara.weaver@enron.com'
p802
aS'tom.donohoe@enron.com'
p803
aS'kdrager@idacorpenergy.com'
p804
aS'edward.gottlob@enron.com'
p805
aS'lisa.jones@enron.com'
p806
aS'marcimeghan@hotmail.com'
p807
aS'wang.ee@enron.com'
p808
aS'gkline@reliantenergy.com'
p809
aS'marilyn.baker@enron.com'
p810
aS'pwri@dynegy.com'
p811
aS'anna.gonzalez@mirant.com'
p812
aS'nancy.corbet@enron.com'
p813
aS'william.stuart@enron.com'
p814
aS'bailey.pam@enron.com'
p815
aS'janael@fourj.com'
p816
aS'brad.nadeau@et.pge.com'
p817
aS'childers.jake@enron.com'
p818
aS'sudheer.kannantha@enron.com'
p819
aS'jadams2@enron.com'
p820
aS'myla.brigance@enron.com'
p821
aS'k..kuykendall@enron.com'
p822
aS'wthomas@cox-internet.com'
p823
aS'theresa.staab@enron.com'
p824
aS'hartwig.jack@enron.com'
p825
aS'kevans@coral-energy.com'
p826
aS'ericandjenny@austin.rr.com'
p827
aS'courtney.childers@enron.com'
p828
aS'julie.ferrara@enron.com'
p829
aS'massimo.marolo@enron.com'
p830
aS'james.little@enron.com'
p831
aS'christopher.watts@enron.com'
p832
aS'peter.f.richards@wgp.twc.com'
p833
aS'tim.deanna@enron.com'
p834
aS'peter.anderson@enron.com'
p835
aS'mike.curry@enron.com'
p836
aS'chu.wang@enron.com'
p837
aS'ricky.rivera@enron.com'
p838
aS'john.carr@enron.com'
p839
aS'george.huan@enron.com'
p840
aS'mct-mlt@worldnet.att.net'
p841
aS'russ.severson@enron.com'
p842
aS'home'
p843
aS'k..allen@enron.com'
p844
aS'mark.greenberg@enron.com'
p845
aS'neeran.pathak@enron.com'
p846
aS'david.livingston@cinergy.com'
p847
aS'chris.ahn@enron.com'
p848
aS'scot.thompson@southernenergy.com'
p849
aS'amanda.huble@enron.com'
p850
aS'michelle.wenz@enron.com'
p851
aS'mbabin@enron.com'
p852
aS'jeffrey.sommers@enron.com'
p853
aS'j.harris@enron.com'
p854
aS'jim.meyer@enron.com'
p855
aS'robert.ramirez@enron.com'
p856
aS'genia.fitzgerald@enron.com'
p857
aS'five5wood@aol.com'
p858
aS'dana.lee@enron.com'
p859
aS'rich.brugger@northwestern.com'
p860
aS'gborrego@semprasolutions.com'
p861
aS'png@orci.com'
p862
aS'jim.shirley@enron.com'
p863
aS'chris.lambie@enron.com'
p864
aS'gabriel.chavez@enron.com'
p865
aS'rebiere.patrick@enron.com'
p866
aS'terry.yamada@enron.com'
p867
aS'e.vicens@enron.com'
p868
aS'phillip.mcduffie@enron.com'
p869
aS'alex.wong@enron.com'
p870
aS'janell.avery@enron.com'
p871
aS'mark.ellenberg@enron.com'
p872
aS'julie.clyatt@enron.com'
p873
aS'traders.eol@enron.com'
p874
aS'jgilmer2@tu.com'
p875
aS'elliot.mainzer@enron.com'
p876
aS'randy.young@enron.com'
p877
aS'carlos.paysse@enron.com'
p878
aS'mendelow.isa@enron.com'
p879
aS'12639@enron.com'
p880
aS'george.breen@enron.com'
p881
aS'christine.milliner@enron.com'
p882
aS'jreames@br-inc.com'
p883
aS'l..nicolay@enron.com'
p884
aS'owenbrown@usa.com'
p885
aS'cyndie.balfour-flanagan@enron.com'
p886
aS'william.bradford@enron.com'
p887
aS'andy.pace@enron.com'
p888
aS'm..presto@enron.com'
p889
aS'nwarren@hotmail.com'
p890
aS'gerald.emesih@enron.com'
p891
aS'pat.smith@enron.com'
p892
aS'l..denton@enron.com'
p893
aS'keith.macivor@enron.com'
p894
aS'philip.polsky@enron.com'
p895
aS'iracema.hernandez@enron.com'
p896
aS'michael.kelly@enron.com'
p897
aS'chris.gray@enron.com'
p898
aS'rogers.herndon@enron.com'
p899
aS'monique.sanchez@enron.com'
p900
aS'bryan.hull@enron.com'
p901
aS'maria.arefieva@enron.com'
p902
aS'griggsby.joy@enron.com'
p903
aS'scott.dieball@enron.com'
p904
aS'justin.day@enron.com'
p905
aS'maria.hernandez@enron.com'
p906
aS'kimberly.indelicato@enron.com'
p907
aS'work'
p908
aS'jeff.herrold@enron.com'
p909
aS'jeffrey.jackson@enron.com'
p910
aS'erika.breen@enron.com'
p911
aS'melanie.king@enron.com'
p912
aS'easton.allison@enron.com'
p913
aS'georges@pobox.com'
p914
aS'f..lytle@enron.com'
p915
aS'mai.nguyen@enron.com'
p916
aS'john.lang@enron.com'
p917
aS'jennifer.bagwell@enron.com'
p918
aS'clint.dean@enron.com'
p919
aS'nancy.carpenter@enron.com'
p920
aS'trushar.patel@enron.com'
p921
aS'ssteckle@utilicorp.com'
p922
aS'nikhil.shah@enron.com'
p923
aS'trevor_nicol@nexeninc.com'
p924
aS'jhaskey@txuenergy.com'
p925
aS'claudia.clark@enron.com'
p926
aS'lprior@enron.com'
p927
aS'mariella.mahan@enron.com'
p928
aS'moyez.lallani@enron.com'
p929
aS'patricia.houston@enron.com'
p930
aS'kstewar@enron.com'
p931
aS'sam.enochian@enron.com'
p932
aS'fred.lagrasta@enron.com'
p933
aS'darren.espey@enron.com'
p934
aS'ned.crady@enron.com'
p935
aS'jwashabaugh@reliantenergy.com'
p936
aS'clement.abrams@enron.com'
p937
aS'ryan.taylor@enron.com'
p938
aS'm..docwra@enron.com'
p939
aS'cheryl.marshall@enron.com'
p940
aS'andolaptchiev@duke-energy.com'
p941
aS'joe.errigo@enron.com'
p942
aS'laura.dewett@enron.com'
p943
aS'harry.arora@enron.com'
p944
aS'neal.symms@enron.com'
p945
aS'cathy@enron.com'
p946
aS'michael.slade@enron.com'
p947
aS'allan.wu@enron.com'
p948
aS'michael.mousteiko@enron.com'
p949
aS'm.shulklapper@enron.com'
p950
aS'troy.black@enron.com'
p951
aS'david.guillaume@enron.com'
p952
aS'john.disturnal@enron.com'
p953
aS'marvin.l.stevens@williams.com'
p954
aS'lfiler@avistaenergy.com'
p955
aS'nicholas.warner@enron.com'
p956
aS'users3.dl-enron@enron.com'
p957
aS'michael.bridges@enron.com'
p958
aS'cooper.richey@enron.com'
p959
aS'david.dachis@neg.pge.com'
p960
aS'steve_irizarry@kindermorgan.com'
p961
aS'jonathan.hoff@enron.com'
p962
aS'paul.radous@enron.com'
p963
aS'angie.collins@enron.com'
p964
aS'stacey.white@enron.com'
p965
aS'cheryl.lindeman@enron.com'
p966
aS'holly.nelson@enron.com'
p967
aS'tfrisina@br-inc.com'
p968
aS'judd.eisenberg@enron.com'
p969
aS'david.woodbury@williams.com'
p970
aS'brian.hoskins@enron.com'
p971
aS'paul.gregory@enron.com'
p972
aS'tds@sagomail.tamu.edu'
p973
aS'john.wallace@deml.com'
p974
aS'ed.mcmichael@enron.com'
p975
aS'jimbie@pdq.net'
p976
aS'clemenr1@bp.com'
p977
aS'jarx@pge.com'
p978
aS'jpuzio@nui.com'
p979
aS's..theriot@enron.com'
p980
aS'castro.faria@enron.com'
p981
aS'lane.merchant@enron.com'
p982
aS'biliana.pehlivanova@enron.com'
p983
aS'sunjay.arya@enron.com'
p984
aS'jmcgowa@smud.org'
p985
aS'nathan.hlavaty@enron.com'
p986
aS'samar.khleif@enron.com'
p987
aS'gretchen.lotz@enron.com'
p988
aS'homer.lin@enron.com'
p989
aS'ryan.thibodeaux@enron.com'
p990
aS'lhrawson@bpa.gov'
p991
aS'airam.arteaga@enron.com'
p992
aS'jeff.dasovich@enron.com'
p993
aS'brandon.luna@enron.com'
p994
aS'kristann.shireman@enron.com'
p995
aS'stephanie.stehling@enron.com'
p996
aS'grier.martin@elpaso.com'
p997
aS'c..koehler@enron.com'
p998
aS'tom.moran@enron.com'
p999
aS'regina.karsolich@enron.com'
p1000
aS'ainsley.gaddis@enron.com'
p1001
aS'shalesh.ganjoo@enron.com'
p1002
aS'kenneth.chow@enron.com'
p1003
aS'pcervin@br-inc.com'
p1004
aS'zoe.banks@enron.com'
p1005
aS'morgan.gottsponer@enron.com'
p1006
aS'h..otto@enron.com'
p1007
aS'maribel.monterrey@enron.com'
p1008
aS'lane.alexander@enron.com'
p1009
aS'joanie.ngo@enron.com'
p1010
aS'cemmert@enron.com'
p1011
aS'reagan.rorschach@enron.com'
p1012
aS'20365-9670@williams.com'
p1013
aS'deborah.festner@cfisd.net'
p1014
aS'wheless.laura@enron.com'
p1015
aS'harry.bucalo@enron.com'
p1016
aS'james.barker@enron.com'
p1017
aS'charles.otto@enron.com'
p1018
aS'jhaake@national-fuel.com'
p1019
aS'toby.rogers@enron.com'
p1020
aS'marc.hensel@enron.com'
p1021
aS'sarah.novosel@enron.com'
p1022
aS'avallow@lodielectric.com'
p1023
aS'tim.landry@enron.com'
p1024
aS'patrick.dominguez@enron.com'
p1025
aS'eric.boyt@enron.com'
p1026
aS'david.portz@enron.com'
p1027
aS'jeff.nogid@enron.com'
p1028
aS'andrew.lewis@enron.com'
p1029
aS'john.viverito@enron.com'
p1030
aS'cindy.wessels@enron.com'
p1031
aS'wayne.gresham@enron.com'
p1032
aS'rowens@iconconsultants.com'
p1033
aS'william.freije@enron.com'
p1034
aS'andre.cheung@enron.com'
p1035
aS'michael.etringer@enron.com'
p1036
aS'r-coulson@tamu.edu'
p1037
aS'scampbel@eanes.k12.tx.us'
p1038
aS'natasha.danilochkina@enron.com'
p1039
aS'pete.j.diclementi@usa.conoco.com'
p1040
aS'stephen.newell@coastalcorp.com'
p1041
aS'lmansi@sdge.com'
p1042
aS'leaf.harasin@enron.com'
p1043
aS'bob.anderson@enron.com'
p1044
aS'clarkdm@bp.com'
p1045
aS'jin.guo@enron.com'
p1046
aS'robbi.rossi@enron.com'
p1047
aS'rinde_powell@pcp.ca'
p1048
aS'fred.tan@enron.com'
p1049
aS'kerri.thompson@enron.com'
p1050
aS'jonathon.pielop@enron.com'
p1051
aS'registration@trustdst.com'
p1052
aS'jchapa@calpine.com'
p1053
aS'tim.belden@enron.com'
p1054
aS'harlan.murphy@enron.com'
p1055
aS'carter.ellis@enron.com'
p1056
aS'h..foster@enron.com'
p1057
aS'myrna.bogle@gateway.net'
p1058
aS'gabriel.gonzalez@enron.com'
p1059
aS'tamara.johnson@enron.com'
p1060
aS'txb6@pge.com'
p1061
aS'matthew.nicholas@enron.com'
p1062
aS'mohamed.aourik@enron.com'
p1063
aS'bodyshop@enron.com'
p1064
aS'diane.daniels@enron.com'
p1065
aS'ibrahim.qureishi@enron.com'
p1066
aS'ken.adams@intcx.com'
p1067
aS'jlynch@westerngas.com'
p1068
aS'ford.chloe@enron.com'
p1069
aS'vinay.adenwala@enron.com'
p1070
aS'robert.richard@enron.com'
p1071
aS'elizabeth.lauterbach@enron.com'
p1072
aS'matthew.frank@enron.com'
p1073
aS'mike.tully@enron.com'
p1074
aS'elisa.evans@enron.com'
p1075
aS'kristy.burton@enron.com'
p1076
aS'kathy.abshire@enron.com'
p1077
aS'rita.l.williams@usa.conoco.com'
p1078
aS'april.hrach@enron.com'
p1079
aS'lisa.brown@enron.com'
p1080
aS'bilal.bajwa@enron.com'
p1081
aS'kenneth.kaase@enron.com'
p1082
aS'claudia.blanton@enron.com'
p1083
aS'elizabeth.johnston@enron.com'
p1084
aS'louis.dicarlo@enron.com'
p1085
aS'everyone_in_ect_calgary@enron.com'
p1086
aS'jim.buerkle@enron.com'
p1087
aS'jay.knoblauh@enron.com'
p1088
aS'peter.makkai@enron.com'
p1089
aS'tyler.seminuk@enron.com'
p1090
aS'ray.mccluer@mirant.com'
p1091
aS'shari_d_brightwell@reliantenergy.com'
p1092
aS'@enron.com'
p1093
aS'scott.neal@enron.com'
p1094
aS'joe.berry@cinergy.com'
p1095
aS'j..silver@enron.com'
p1096
aS'cpavlica@enerad.com'
p1097
aS'clappertonj@energystore.net'
p1098
aS'alyse.herasimchuk@enron.com'
p1099
aS'p..dupre@enron.com'
p1100
aS'jayanta.sengupta@enron.com'
p1101
aS'carlos.gorricho@enron.com'
p1102
aS'matt.hobson@enron.com'
p1103
aS'david.stadnick@enron.com'
p1104
aS'm.smith@enron.com'
p1105
aS'paul.thomas@enron.com'
p1106
aS'wgregory@hcad.org'
p1107
aS'peter.lund@gt.pge.com'
p1108
aS'paul.ybarbo@enron.com'
p1109
aS'ben.humann@enron.com'
p1110
aS'lucy.ortiz@enron.com'
p1111
aS'rtyra@txuenergy.com'
p1112
aS'sonya.johnson@enron.com'
p1113
aS'mayra.mendez@enron.com'
p1114
aS'rob.brown@enron.com'
p1115
aS'lenny.hochschild@enron.com'
p1116
aS'steven.leung@enron.com'
p1117
aS'sheila.chang@enron.com'
p1118
aS'robin.rodrigue@enron.com'
p1119
aS'kortney.brown@enron.com'
p1120
aS'pvallone@cngc.com'
p1121
aS'mark.fischer@enron.com'
p1122
aS's..lim@enron.com'
p1123
aS'sebastian.bouvier@enron.com'
p1124
aS'agcdu1@triax.com'
p1125
aS'jason.panos@enron.com'
p1126
aS'john.taylor@enron.com'
p1127
aS'catherine.woolgar@enron.com'
p1128
aS'marc.phillips@enron.com'
p1129
aS'beveret@enron.com'
p1130
aS'margaret.hall@enron.com'
p1131
aS'clark.w.mower@williams.com'
p1132
aS'john.oliver@enron.com'
p1133
aS'allison.millan@enron.com'
p1134
aS'ann.greg@enron.com'
p1135
aS'aparna.rajaram@enron.com'
p1136
aS'stephen.thatcher@enron.com'
p1137
aS'fredrik.eriksson@enron.com'
p1138
aS'james.saunders@enron.com'
p1139
aS'debora.klinger@enron.com'
p1140
aS'mark@wasatchenergy.com'
p1141
aS'cybele.henriquez@enron.com'
p1142
aS'leejoffe@yahoo.com'
p1143
aS'david_m_huck@reliantenergy.com'
p1144
aS'marge.nadasky@enron.com'
p1145
aS'ksanchez@houstonisd.org'
p1146
aS'david.ryan@enron.com'
p1147
aS'john.king@enron.com'
p1148
aS'sanjay.patel@enron.com'
p1149
aS'lance.schuler-legal@enron.com'
p1150
aS'maria.van@enron.com'
p1151
aS'jan.callaway@enron.com'
p1152
aS'lbbinford@aol.com'
p1153
aS'hotmail.com@enron.com'
p1154
aS'paul.tate@enron.com'
p1155
aS'cynthia.harkness@enron.com'
p1156
aS'oasissupport@entergy.com'
p1157
aS'20573-1530@williams.com'
p1158
aS'hillary.mack@enron.com'
p1159
aS'kimberlee.bennick@enron.com'
p1160
aS'larry.robinson@enron.com'
p1161
aS'john.allario@enron.com'
p1162
aS'joanne.rozycki@enron.com'
p1163
aS'ed@clfp.com'
p1164
aS'michael.ellington@enron.com'
p1165
aS'roneads@tristargas.com'
p1166
aS'li.sun@enron.com'
p1167
aS'otto.liepins@enron.com'
p1168
aS'jozsef.balogh@enron.com'
p1169
aS'malonzo@sdge.com'
p1170
aS'ted.evans@enron.com'
p1171
aS'tianri.zhu@enron.com'
p1172
aS'jeff.gray@enron.com'
p1173
aS'majano.edmundo@enron.com'
p1174
aS'gloria.barkowsky@enron.com'
p1175
aS'theresa.franklin@enron.com'
p1176
aS'adam.siegel@enron.com'
p1177
aS'john.messenger@enron.com'
p1178
aS'adriana.domingues@enron.com'
p1179
aS'notification.isc@enron.com'
p1180
aS'irina.nekrasova@enron.com'
p1181
aS'narsimha.misra@enron.com'
p1182
aS'trang.dinh@enron.com'
p1183
aS'deborah.hart@msdw.com'
p1184
aS'amanda.day@enron.com'
p1185
aS'phillip.allen@enron.com'
p1186
aS'palmer.letzerich@enron.com'
p1187
aS'jpu1@pge.com'
p1188
aS'robert.superty@enron.com'
p1189
aS'kathryn.bussell@enron.com'
p1190
aS'bwood@energy.state.ca.us'
p1191
aS'shirley.oliver@enron.com'
p1192
aS'russell.kelley@enron.com'
p1193
aS'anubhav.aggarwal@enron.com'
p1194
aS'srfl@dynegy.com'
p1195
aS'yorl@hub.ofthe.net'
p1196
aS'margie.mcbath@enron.com'
p1197
aS'punit.rawal@enron.com'
p1198
aS'matthew.jachimiak@enron.com'
p1199
aS'steinunn.thordardottir@enron.com'
p1200
aS'e..levingston@enron.com'
p1201
aS'hpl/aep.bywaters@enron.com'
p1202
aS'stacy.patton@enron.com'
p1203
aS'mateo.vegalara@enron.com'
p1204
aS'eric.dixon@enron.com'
p1205
aS'darren.maloney@enron.com'
p1206
aS'sgillit@cngc.com'
p1207
aS'shockwave@mms.shockwave.com'
p1208
aS'rochmanm@spurr.org'
p1209
aS'haye@dynegy.com'
p1210
aS'd..thomas@enron.com'
p1211
aS'benledene@aec.ca'
p1212
aS'justin.cornett@enron.com'
p1213
aS'jean.bell@enron.com'
p1214
aS'diane.anderson@enron.com'
p1215
aS'eric.saibi@enron.com'
p1216
aS'derek.davies@enron.com'
p1217
aS'ali.khoja@enron.com'
p1218
aS'russell.warren@ttu.edu'
p1219
aS'mwomack@tristar-gas.com'
p1220
aS'mwp8246@idahopower.com'
p1221
aS'david.velen@enron.com'
p1222
aS'jared.kaiser@enron.com'
p1223
aS'kimberly.olinger@enron.com'
p1224
aS'chris.foster@enron.com'
p1225
aS'carellyn-pitre@coastenergy.com'
p1226
aS'thomas_j_toerner@reliantenergy.com'
p1227
aS'jaime.gualy@enron.com'
p1228
aS'ebs'
p1229
aS'claudia.santos@enron.com'
p1230
aS'benjamin.thomason@enron.com'
p1231
aS'kate.fraser@enron.com'
p1232
aS'eatrofholz@aol.com'
p1233
aS'kenneth.reinheimer@enron.com'
p1234
aS'khymberly.booth@enron.com'
p1235
aS'gonzalez.ana@enron.com'
p1236
aS'sharon.crawford@enron.com'
p1237
aS'tim.weithman@enron.com'
p1238
aS'james_lagadin@altagas.ca'
p1239
aS'teresa.bushman@enron.com'
p1240
aS'stacey.brewer@enron.com'
p1241
aS'ben.porath@oatiinc.com'
p1242
aS'shaleen.miller@enron.com'
p1243
aS'20388-6905@williams.com'
p1244
aS'andrea.langfeldt@enron.com'
p1245
aS'john.kinser@enron.com'
p1246
aS'paul.devries@enron.com'
p1247
aS'dale.neuner@enron.com'
p1248
aS'jeffrey.oh@enron.com'
p1249
aS'sandi.braband@enron.com'
p1250
aS'john.knock@elpaso.com'
p1251
aS'bryce.baxter@enron.com'
p1252
aS'robert.saltiel@enron.com'
p1253
aS'leonard.dillehay@enron.com'
p1254
aS'jackie.rausch@cabotog.com'
p1255
aS'jdaly@cinergy.com'
p1256
aS'cprice@igservice.com'
p1257
aS'troy.denetsosie@enron.com'
p1258
aS'sanjay.konur@enron.com'
p1259
aS'jeremy.dawson@enron.com'
p1260
aS'ken_allen@dell.com'
p1261
aS'patrick.davis@enron.com'
p1262
aS'20584-7076@williams.com'
p1263
aS'robert.bruce@enron.com'
p1264
aS'marc.poulson@enron.com'
p1265
aS'w..bennett@enron.com'
p1266
aS'earline.kendall@enron.com'
p1267
aS'gandhsj@texaco.com'
p1268
aS'cheryl.nelson@enron.com'
p1269
aS'mog.heu@enron.com'
p1270
aS'birkofer.joe@enron.com'
p1271
aS'pgorton@avistaenergy.com'
p1272
aS'jeffrey.hodge@enron.com'
p1273
aS'sheri.clemons@southernenergy.com'
p1274
aS'joseph.pohl@ubspw.com'
p1275
aS'kevin.ashby@enron.com'
p1276
aS'ramperms@bp.com'
p1277
aS'kristen.hanson@enron.com'
p1278
aS'lisa.connolly@enron.com'
p1279
aS'a..martin@enron.com'
p1280
aS'bmolitor@igires.com'
p1281
aS'dana.davis@enron.com'
p1282
aS'john.choi@enron.com'
p1283
aS'savage.joe@enron.com'
p1284
aS'bobm@kdi.com'
p1285
aS'brandon.cavazos@enron.com'
p1286
aS'jeff.shields@enron.com'
p1287
aS'fatimata.liamidi@enron.com'
p1288
aS'w..eubanks@enron.com'
p1289
aS'paul.kane@enron.com'
p1290
aS'gil.muhl@enron.com'
p1291
aS'm..landwehr@enron.com'
p1292
aS'steven.p.south@enron.com'
p1293
aS'd..hare@enron.com'
p1294
aS'jana.giovannini@enron.com'
p1295
aS'mike.maggi@enron.com'
p1296
aS'susan.jones@neg.pge.com'
p1297
aS'dael@dynegy.com'
p1298
aS'faizal_sharma@transalta.com'
p1299
aS'renee.alfaro@enron.com'
p1300
aS'pteel@tamu.edu'
p1301
aS'justin.laverell@enron.com'
p1302
aS'mikeykm@hotmail.com'
p1303
aS'linda.richards@eprime.com'
p1304
aS'steven.merriss@enron.com'
p1305
aS'ahmet.kose@enron.com'
p1306
aS'eric.shaw@enron.com'
p1307
aS'david.haug@enron.com'
p1308
aS'natters1114@aol.com'
p1309
aS'slc.krsched@williams.com'
p1310
aS'leonidas.savvas@enron.com'
p1311
aS'julie.sarnowski@enron.com'
p1312
aS'marc.bir@enron.com'
p1313
aS'stephane.brodeur@enron.com'
p1314
aS'sterling@techheadnet.com'
p1315
aS'dl-erc@enron.com'
p1316
aS'george.hopley@enron.com'
p1317
aS'michelle_hunter@pgn.com'
p1318
aS'mmalinow@westerngas.com'
p1319
aS'john.singer@enron.com'
p1320
aS'traci.warner@enron.com'
p1321
aS'steve.olinde@enron.com'
p1322
aS'miguel.vasquez@enron.com'
p1323
aS'info@abag.ca.gov'
p1324
aS'suzanne.calcagno@enron.com'
p1325
aS'shenry@smurfit.com'
p1326
aS'earl.bouse@hansonamerica.com'
p1327
aS'victor.lamadrid@enron.com'
p1328
aS'terri.clynes@enron.com'
p1329
aS'doug_way@transcanada.com'
p1330
aS'maria.tefel@enron.com'
p1331
aS'philip.durst@enron.com'
p1332
aS'feedback@intcx.com'
p1333
aS'jeremy.buss@enron.com'
p1334
aS'piyush.patel@enron.com'
p1335
aS's.chettiar@enron.com'
p1336
aS'teresa.bosien@enron.com'
p1337
aS'pwah@socalgas.com'
p1338
aS'roberto.martinez@enron.com'
p1339
aS'users.livelink@enron.com'
p1340
aS'kien.luu@enron.com'
p1341
aS'ken.mathis@enron.com'
p1342
aS'david.hardy@enron.com'
p1343
aS'dtaylor@igires.com'
p1344
aS'geoff.storey@enron.com'
p1345
aS'rgladman@aep.com'
p1346
aS'sheslington@msn.com'
p1347
aS'martinjl2@bp.com'
p1348
aS'tom.mckay@engageenergy.com'
p1349
aS'mike.miller@enron.com'
p1350
aS'juanita.andrade@enron.com'
p1351
aS'mark.anderson@swgas.com'
p1352
aS's..pollan@enron.com'
p1353
aS'fleite@enron.com'
p1354
aS'tom.alonso@enron.com'
p1355
aS'bmedlock@cngc.com'
p1356
aS'spasloski@coral-energy.com'
p1357
aS'gregory.smolar@enron.com'
p1358
aS'scott.palmer@enron.com'
p1359
aS'zcourns@national-fuel.com'
p1360
aS'richard.jim@enron.com'
p1361
aS'sladana-anna.kulic@enron.com'
p1362
aS'nancy.wojciehowski@williams.com'
p1363
aS'l.miller@enron.com'
p1364
aS'anthony.campos@enron.com'
p1365
aS'dave.steiner@enron.com'
p1366
aS'erin@enron.com'
p1367
aS'dolores.escamilla@enron.com'
p1368
aS'dan.boyle@enron.com'
p1369
aS'scott.healy@enron.com'
p1370
aS'angela.saenz@enron.com'
p1371
aS'jun.wang@enron.com'
p1372
aS'austin.summerford@enron.com'
p1373
aS'mailer-daemon@pgn.com'
p1374
aS'c.griffin@enron.com'
p1375
aS'terrance.pinckney@enron.com'
p1376
aS'y.compean@enron.com'
p1377
aS'javier.marrero@enron.com'
p1378
aS'kreg.hall@enron.com'
p1379
aS'eric.schneider@enron.com'
p1380
aS'philip.mayor@enron.com'
p1381
aS'justin.rostant@enron.com'
p1382
aS'marc.horowitz@enron.com'
p1383
aS'20495-8142@williams.com'
p1384
aS'drager@enron.com'
p1385
aS'dipak.agarwalla@enron.com'
p1386
aS'dustin.collins@enron.com'
p1387
aS'victor.bulbes@enron.com'
p1388
aS'enerfax1@bellsouth.net'
p1389
aS'richard.yeboah@enron.com'
p1390
aS'david.fairley@enron.com'
p1391
aS'kalmans.lewis@enron.com'
p1392
aS'gascontroller@aec.ca'
p1393
aS'chris.gaskill@enron.com'
p1394
aS'laab@pge.com'
p1395
aS'20752-7841@williams.com'
p1396
aS'tony.thomas@enron.com'
p1397
aS'lia.halstead@enron.com'
p1398
aS'kirk.t.morgan@williams.com'
p1399
aS'michael.nguyen@enron.com'
p1400
aS's..lee@enron.com'
p1401
aS'harp@powerspring.com'
p1402
aS'hai.chen@enron.com'
p1403
aS'bob.hall@enron.com'
p1404
aS'mafe@dynegy.com'
p1405
aS'kelly.lombardi@enron.com'
p1406
aS'nbaker@enron.com'
p1407
aS'niftyhen@yahoo.com'
p1408
aS'swainsj@texaco.com'
p1409
aS'timothy.bayles@enron.com'
p1410
aS'joe.kachinski@enron.com'
p1411
aS'paulamirault@aec.ca'
p1412
aS'celeste.cisneros@enron.com'
p1413
aS'doug.sewell@enron.com'
p1414
aS'susan.rouse@enron.com'
p1415
aS'lgang@enron.com'
p1416
aS'sullo.greg@enron.com'
p1417
aS'f..keavey@enron.com'
p1418
aS'garrett.tripp@enron.com'
p1419
aS't..lucci@enron.com'
p1420
aS'jim.willis@enron.com'
p1421
aS'aweaver@bayou.uh.edu'
p1422
aS'kimberly.shoaf@enron.com'
p1423
aS'tobin.carlson@enron.com'
p1424
aS'waltons@epenergy.com'
p1425
aS'sheila.howard@enron.com'
p1426
aS'margaret.wysatta@enron.com'
p1427
aS'vivien.pham@enron.com'
p1428
aS'20863-1558@williams.com'
p1429
aS'sheetal.patel@enron.com'
p1430
aS'lisa.burnett@enron.com'
p1431
aS'george.gilbert@enron.com'
p1432
aS'srinivasan.rajesh@enron.com'
p1433
aS'jblackman@enron.com'
p1434
aS'jmmcarthur@duke-energy.com'
p1435
aS'jai.hawker@enron.com'
p1436
aS'suzie.gragg@enron.com'
p1437
aS'resources.human@enron.com'
p1438
aS'steve.gillespie@enron.com'
p1439
aS'kevin.cline@enron.com'
p1440
aS'linda.w.humphrey@williams.com'
p1441
aS'hereford.lisa@enron.com'
p1442
aS'fasttake@fastcompany.com'
p1443
aS'kyle.lilly@enron.com'
p1444
aS'geraldine.irvine@enron.com'
p1445
aS'sheila.tweed@enron.com'
p1446
aS'derekaberle@aec.ca'
p1447
aS'20321-6113@williams.com'
p1448
aS'samantha.bryce@enron.com'
p1449
aS'cbridwell@txuenergy.com'
p1450
aS'bill.greenizan@enron.com'
p1451
aS'louis.redshaw@enron.com'
p1452
aS'cindi.to@enron.com'
p1453
aS'gail.brownfeld@enron.com'
p1454
aS'dsciullo@bw-legal.com'
p1455
aS'sonia.hennessy@enron.com'
p1456
aS'robin.barbe@enron.com'
p1457
aS'daniel.hamilton@enron.com'
p1458
aS'silverman.scott@enron.com'
p1459
aS'steuber.phil@enron.com'
p1460
aS'heller.kathryn@enron.com'
p1461
aS'jodi.dobrinski@enron.com'
p1462
aS'greg.krause@enron.com'
p1463
aS'sl@inlandpacific.com'
p1464
aS'scotth@ngtsllc.com'
p1465
aS'gallin.fortunov@enron.com'
p1466
aS'peggy.banczak@enron.com'
p1467
aS'jcameron@transtechmanagement.com'
p1468
aS'dan.mccairns@enron.com'
p1469
aS'mpatton@cngc.com'
p1470
aS'donna.jones@enron.com'
p1471
aS'llightfoot@coral-energy.com'
p1472
aS'lippmanc@aol.com'
p1473
aS'lynn.bellinghausen@enron.com'
p1474
aS'paul.sims@enron.com'
p1475
aS'glist.louis@enron.com'
p1476
aS'amelia.alder@enron.com'
p1477
aS'ssouth@enron.com'
p1478
aS'kevin.presto@enron.com'
p1479
aS'jay.blaine@enron.com'
p1480
aS'david.case@enron.com'
p1481
aS'20457-9748@williams.com'
p1482
aS'chris.meyer@enron.com'
p1483
aS'erik.hokmark@enron.com'
p1484
aS'utku.gulmeden@enron.com'
p1485
aS'ivonne.brown@enron.com'
p1486
aS'larry.bishop@enron.com'
p1487
aS'anthony.sexton@enron.com'
p1488
aS'dale.newberger@enron.com'
p1489
aS'jeff.donahue@enron.com'
p1490
aS'naveed.ahmed@enron.com'
p1491
aS'tim.dori@enron.com'
p1492
aS'users.dl-enron@enron.com'
p1493
aS'andrea.dahlke@enron.com'
p1494
aS'alejandro.hernandez@enron.com'
p1495
aS'melaniev@njbinc.net'
p1496
aS'dna1@pge.com'
p1497
aS'reginald.shanks@enron.com'
p1498
aS'steve.hooser@enron.com'
p1499
aS'kristin.quinn@enron.com'
p1500
aS'gtom@socalgas.com'
p1501
aS'e.vasquez@enron.com'
p1502
aS'bernice.rodriguez@enron.com'
p1503
aS'will@enron.com'
p1504
aS'melissa.murphy@enron.com'
p1505
aS'scott.ramsower@enron.com'
p1506
aS'merrill.haas@enron.com'
p1507
aS'cynthia.ramirez@enron.com'
p1508
aS'reshma_rawj@gulf.com'
p1509
aS'gustofsons@valero.com'
p1510
aS'payne.julie@enron.com'
p1511
aS'rogertan@swbell.net'
p1512
aS'michael.rosen@enron.com'
p1513
aS'n..gray@enron.com'
p1514
aS'richard.sanders@enron.com'
p1515
aS'r..guillen@enron.com'
p1516
aS'astant@sempratrading.com'
p1517
aS'shawna.johnson@enron.com'
p1518
aS'zeina.el-azzi@enron.com'
p1519
aS'jill.chatterton@enron.com'
p1520
aS'20646-3284@williams.com'
p1521
aS'ed.miller@coastalcorp.com'
p1522
aS'ron.green@enron.com'
p1523
aS'robert.shiring@enron.com'
p1524
aS'jessie.wang@enron.com'
p1525
aS'jsandmaier@aep.com'
p1526
aS'lee.jackson@enron.com'
p1527
aS'michael.yosowitz@enron.com'
p1528
aS'band@24bom.com'
p1529
aS'b..sanders@enron.com'
p1530
aS'ben.gwaltney@enron.com'
p1531
aS'e..brown@enron.com'
p1532
aS'landry.joe@enron.com'
p1533
aS'ttonkin@utilicorp.com'
p1534
aS'pwah@pacent.com'
p1535
aS'christi@enron.com'
p1536
aS'dave_gartshore@transcanada.com'
p1537
aS'akida.bellamy@enron.com'
p1538
aS'nicole.cortez@enron.com'
p1539
aS'john.hogan@mirant.com'
p1540
aS'selena.gonzalez@enron.com'
p1541
aS'sagardner@marathonoil.com'
p1542
aS'p.jachimiak@enron.com'
p1543
aS'jloleary@bpa.gov'
p1544
aS'nicole.palczer@enron.com'
p1545
aS'jose.reis@enron.com'
p1546
aS'amy.beck@enron.com'
p1547
aS'carrie.larkworthy@enron.com'
p1548
aS'carolyn.george@enron.com'
p1549
aS'legal'
p1550
aS'james.bouillion@enron.com'
p1551
aS'dillingham.megan@enron.com'
p1552
aS'ricky.dang@enron.com'
p1553
aS'doug.wood@enron.com'
p1554
aS'miles.lidsey@enron.com'
p1555
aS'robert.sevitz@enron.com'
p1556
aS'david.ingram@enron.com'
p1557
aS'francisco.dl-san@enron.com'
p1558
aS'phil.boggs@enron.com'
p1559
aS'laura.giambrone@enron.com'
p1560
aS'comforgd@igires.com'
p1561
aS'mknutson@avistaenergy.com'
p1562
aS'larry.valderrama@enron.com'
p1563
aS'tracy.weltz@enron.com'
p1564
aS'tushar.dhruv@enron.com'
p1565
aS'e..kelly@enron.com'
p1566
aS'vance.taylor@enron.com'
p1567
aS'lou.stoler@enron.com'
p1568
aS'pchymiy@nui.com'
p1569
aS'scott_yule@transcanada.com'
p1570
aS'dean.russell@enron.com'
p1571
aS'david.rosenberg@enron.com'
p1572
aS'james.whitehead@enron.com'
p1573
aS'carolma@cook-inlet.com'
p1574
aS'john.griffith@enron.com'
p1575
aS'f..herod@enron.com'
p1576
aS'donorservices@uwnyc.org'
p1577
aS'neel.broker@enron.com'
p1578
aS'petual.jeanmard@enron.com'
p1579
aS'bala.kandaswamy@enron.com'
p1580
aS'swilson@idahopower.com'
p1581
aS'hots@chevron.com'
p1582
aS'coachsean@ev1.net'
p1583
aS'roderick.nelson@enron.com'
p1584
aS'heather.thompson@enron.com'
p1585
aS'leslie_101@hotmail.com'
p1586
aS'denis.bajolle@enron.com'
p1587
aS'thane.twiggs@enron.com'
p1588
aS'tim.cooper@enron.com'
p1589
aS'chenee.franklin@enron.com'
p1590
aS'eva.rainer@enron.com'
p1591
aS'chris.wiebe@enron.com'
p1592
aS'henry.montana@enron.com'
p1593
aS'michael.danielson@enron.com'
p1594
aS'pwood@covantaenergy.com'
p1595
aS'erik.eller@enron.com'
p1596
aS'greg.trefz@enron.com'
p1597
aS'hala.tayyarah@enron.com'
p1598
aS'roshena.ham@enron.com'
p1599
aS'nelda.shealy@enron.com'
p1600
aS'sharron.westbrook@enron.com'
p1601
aS'duc.duong@enron.com'
p1602
aS'mary.ogden@enron.com'
p1603
aS'richard.shepherd@enron.com'
p1604
aS'andy.rodriquez@enron.com'
p1605
aS'mark.davis@enron.com'
p1606
aS'starwood@spg.0mm.com'
p1607
aS'outlook.team@enron.com'
p1608
aS'cynthia.franklin@enron.com'
p1609
aS'frank.field@williams.com'
p1610
aS'barry.lewis@enron.com'
p1611
aS'franky.sulistio@enron.com'
p1612
aS'geek@bp.com'
p1613
aS'tom.roth@neg.pge.com'
p1614
aS'melissa.videtto@enron.com'
p1615
aS'jason.jenkins@enron.com'
p1616
aS'dpk@cipa.org'
p1617
aS'alan.aronowitz@enron.com'
p1618
aS'george.grant@enron.com'
p1619
aS'days@epenergy.com'
p1620
aS'jelmore@eesinc.com'
p1621
aS'ermes.melinchon@enron.com'
p1622
aS'stephanie.strong@enron.com'
p1623
aS'c.nancy@enron.com'
p1624
aS'jody.crook@enron.com'
p1625
aS'donna.greif@enron.com'
p1626
aS'john.schwartzenburg@enron.com'
p1627
aS'rebecca.watkins@enron.com'
p1628
aS'joe.parks@enron.com'
p1629
aS'jiri.novotny@enron.com'
p1630
aS'pabercrombie@txu.com'
p1631
aS'charles.weldon@enron.com'
p1632
aS'leah.stephens@enron.com'
p1633
aS'sliver.andrew@enron.com'
p1634
aS'mark.meigs@enron.com'
p1635
aS'tom.dutta@enron.com'
p1636
aS'theresa.zucha@enron.com'
p1637
aS'mark.cook@enron.com'
p1638
aS'robert.sadee@husky-oil.com'
p1639
aS'russell.parks@enron.com'
p1640
aS'troy.l.ruflin@wgp.twc.com'
p1641
aS'dan.harrell@enron.com'
p1642
aS'robert.benson@enron.com'
p1643
aS'dwayne.peterson@enron.com'
p1644
aS'gisselle.rohmer@enron.com'
p1645
aS'jessie.patterson@enron.com'
p1646
aS'andrew.moth@enron.com'
p1647
aS'grahamp@kochind.com'
p1648
aS'becky.spencer@enron.com'
p1649
aS'dave.schulgen@enron.com'
p1650
aS't..wood@enron.com'
p1651
aS'christina.slinger@gs.com'
p1652
aS'samantha.boyd@enron.com'
p1653
aS'sabrina.minnis@enron.com'
p1654
aS'jbriggs@experio.com'
p1655
aS'ravi.mujumdar@enron.com'
p1656
aS'randy.otto@enron.com'
p1657
aS'kate.lucas@enron.com'
p1658
aS'mudlaw@swbell.net'
p1659
aS'swgregory@shellus.com'
p1660
aS'shcorn@aol.com'
p1661
aS'parellan@co.riverside.ca.us'
p1662
aS'pool.jessica@enron.com'
p1663
aS'morgan@wxs.nl'
p1664
aS'winnhg@pol.net'
p1665
aS's..hall@enron.com'
p1666
aS'karen.boehnke@enron.com'
p1667
aS'h..lewis@enron.com'
p1668
aS'virendra.patel@enron.com'
p1669
aS'rudy.acevedo@enron.com'
p1670
aS'karen.oday@enron.com'
p1671
aS'jill.zivley@enron.com'
p1672
aS'legal.5@enron.com'
p1673
aS'sunil.dalal@enron.com'
p1674
aS'recipients@enron.com'
p1675
aS'arvindh.kumar@enron.com'
p1676
aS'sebastien.saubier@enron.com'
p1677
aS'mary.womack@enron.com'
p1678
aS'ajit.dhansinghani@enron.com'
p1679
aS'stacey.richardson@enron.com'
p1680
aS'kdowney@cera.com'
p1681
aS'purvi.patel@enron.com'
p1682
aS'andres.balmaceda@enron.com'
p1683
aS'c.blakely@enron.com'
p1684
aS'f..smith@enron.com'
p1685
aS'kpeterso@epelectric.com'
p1686
aS'v..porter@enron.com'
p1687
aS'rob.hozjan@southernenergy.com'
p1688
aS'20324-2970@williams.com'
p1689
aS'epec@epelectric.com'
p1690
aS'michael.wong@enron.com'
p1691
aS't..rick@enron.com'
p1692
aS'kendell.sprott@enron.com'
p1693
aS'marcus.edmonds@enron.com'
p1694
aS'arellano.peter@enron.com'
p1695
aS'caroline.abramo@enron.com'
p1696
aS'rhonda.robinson@enron.com'
p1697
aS'monica_padilla@cerberus.city.palo-alto.ca.us'
p1698
aS'kim.harris@enron.com'
p1699
aS'connie.castillo@enron.com'
p1700
aS'ron.youell@mirant.com'
p1701
aS'waynek@qstr.com'
p1702
aS'lynn.g.dahlberg@williams.com'
p1703
aS'rodney.barnes@enron.com'
p1704
aS'linda.noske@enron.com'
p1705
aS'marc.wharton@enron.com'
p1706
aS'thresa.allen@enron.com'
p1707
aS'jose.bestard@enron.com'
p1708
aS'cynthia.shoup@enron.com'
p1709
aS'a..cordova@enron.com'
p1710
aS'jake_scarbrough@hotmail.com'
p1711
aS'lexi.elliott@enron.com'
p1712
aS'gerald.nemec@enron.com'
p1713
aS'james.grace@enron.com'
p1714
aS'david.loosley@enron.com'
p1715
aS'thomas.araujo@enron.com'
p1716
aS'cindy.vachuska@enron.com'
p1717
aS'reagan.mathews@enron.com'
p1718
aS'rodneyh@aes.tamu.edu'
p1719
aS'gwenreid@aec.ca'
p1720
aS'chanbs@bp.com'
p1721
aS'12442@enron.com'
p1722
aS'thomas.mcfatridge@enron.com'
p1723
aS'david.maskell@enron.com'
p1724
aS'tdizona@coral-energy.com'
p1725
aS'chapman@enron.com'
p1726
aS'nemeth.kimberly@enron.com'
p1727
aS'suzanne.ingram@enron.com'
p1728
aS'lance.halgren@enron.com'
p1729
aS'scott.loving@enron.com'
p1730
aS'patricia.payton@enron.com'
p1731
aS'sakom@attglobal.net'
p1732
aS'laura.arnold@enron.com'
p1733
aS'spencecp@bp.com'
p1734
aS'hleonard@cngc.com'
p1735
aS'michelle.blaine@enron.com'
p1736
aS'joao.albuquerque@enron.com'
p1737
aS'shauna@enron.com'
p1738
aS'sylvia.pollan@enron.com'
p1739
aS'damon.harvey@enron.com'
p1740
aS'tamara.carter@enron.com'
p1741
aS'igi@nctimes.net'
p1742
aS'robert.rosa@enron.com'
p1743
aS'laura.vargas@enron.com'
p1744
aS'ali.ahmed@enron.com'
p1745
aS'sebastian.corbacho@enron.com'
p1746
aS'12361@enron.com'
p1747
aS'steve.neal@enron.com'
p1748
aS'mezcal@24bom.com'
p1749
aS'julie_menconi@countrywide.com'
p1750
aS'louise.kitchen@enron.com'
p1751
aS'joe.brewer@enron.com'
p1752
aS'matt.smith@enron.com'
p1753
aS'oliver.pereira@enron.com'
p1754
aS'adam.pollock@enron.com'
p1755
aS'vladi.pimenov@enron.com'
p1756
aS'jim.coffey@enron.com'
p1757
aS'stacy.dickson@enron.com'
p1758
aS'lindsay.renaud@enron.com'
p1759
aS'mark.diedrich@enron.com'
p1760
aS'sbdot@juno.com'
p1761
aS'david.marshall@enron.com'
p1762
aS'greg.caudell@enron.com'
p1763
aS'sharp.sandy@enron.com'
p1764
aS'bangle.brad@enron.com'
p1765
aS'mark.brand@enron.com'
p1766
aS'juan.rios@enron.com'
p1767
aS'pratt.scott@enron.com'
p1768
aS'bsitz82@aol.com'
p1769
aS'susan.laird@enron.com'
p1770
aS'g.kelly@enron.com'
p1771
aS'dean.urbanik@hansonamerica.com'
p1772
aS'kevin.coyle@elpaso.com'
p1773
aS'larry.hunter@enron.com'
p1774
aS'adrienneanderson@aec.ca'
p1775
aS'pauline.reyes@enron.com'
p1776
aS'julie.kearney@enron.com'
p1777
aS'jane.m.tholt@enron.com'
p1778
aS'jenny.helton@enron.com'
p1779
aS'farhad.ahad@enron.com'
p1780
aS'casey.evans@enron.com'
p1781
aS'david.mitchell@enron.com'
p1782
aS'michael.kolman@enron.com'
p1783
aS'frank.sayre@enron.com'
p1784
aS'susan.bailey@enron.com'
p1785
aS'tdickers@westerngas.com'
p1786
aS'beth.cowan@enron.com'
p1787
aS'l..kelly@enron.com'
p1788
aS'cheryl.erickson@enron.com'
p1789
aS'hrennell@worldnet.att.net'
p1790
aS'd..sorenson@enron.com'
p1791
aS'counterparty.enron@enron.com'
p1792
aS'veronica.hill@enron.com'
p1793
aS'kimberley.jacobson@enron.com'
p1794
aS'teresa.dyar@enron.com'
p1795
aS'lora.ellis@enron.com'
p1796
aS'ricardo.perez@enron.com'
p1797
aS'mark.mixon@enron.com'
p1798
aS'mike.grigsby@enron.com'
p1799
aS'moises.benchluch@enron.com'
p1800
aS'brett.wiggs@enron.com'
p1801
aS'royer.todd@enron.com'
p1802
aS'daniel.castagnola@enron.com'
p1803
aS'amanda.curless@enron.com'
p1804
aS'rcooper@utilicorp.com'
p1805
aS'a..garcia@enron.com'
p1806
aS'ryan.slinger@enron.com'
p1807
aS'rallen@westerngas.com'
p1808
aS'travis.andrews@enron.com'
p1809
aS'settlements.ees@enron.com'
p1810
aS'b..fleming@enron.com'
p1811
aS'vaughan.kristin@enron.com'
p1812
aS'jaime.araoz@enron.com'
p1813
aS'steve_p_scheffler@amoco.com'
p1814
aS'pmshore@tristar-gas.com'
p1815
aS'k..jones@enron.com'
p1816
aS'pmcdougall@coral-energy.com'
p1817
aS'rdreith@smud.org'
p1818
aS'ryan.williams@enron.com'
p1819
aS'andrew.kandolha@enron.com'
p1820
aS'rene.frederick@apachecorp.com'
p1821
aS'margaret.doucette@enron.com'
p1822
aS'ami.thakkar@enron.com'
p1823
aS'kgonzales@sppc.com'
p1824
aS'joe.quenet@enron.com'
p1825
aS'shirley.sidler@enron.com'
p1826
aS'vikram.singh@enron.com'
p1827
aS'greenallg@epenergy.com'
p1828
aS'dominic.carolan@enron.com'
p1829
aS'caver_ordal@pgn.com'
p1830
aS'fraser.allen@enron.com'
p1831
aS'clarissa.garcia@enron.com'
p1832
aS'kelley.huntley@enron.com'
p1833
aS'mark.whitt@enron.com'
p1834
aS'mcano@enerad.com'
p1835
aS'rachana.iyengar@enron.com'
p1836
aS'peter.del@enron.com'
p1837
aS'mark.kinkead@enron.com'
p1838
aS'tony.wolfe@enron.com'
p1839
aS'ecma@dynegy.com'
p1840
aS'sue.cowan@enron.com'
p1841
aS'scott.newkirk@enron.com'
p1842
aS'alan.chen@enron.com'
p1843
aS'tom.shelton@enron.com'
p1844
aS'reese.trejo@enron.com'
p1845
aS'tina.holcombe@enron.com'
p1846
aS'users1.dl-enron@enron.com'
p1847
aS'steve_deanda@crosstimbers.com'
p1848
aS'george.phillips@enron.com'
p1849
aS'jones.jeanie@enron.com'
p1850
aS'scott.cleverly@enron.com'
p1851
aS'marissa.womble@enron.com'
p1852
aS'sherishairrick@hotmail.com'
p1853
aS'd..davis@enron.com'
p1854
aS'milson.mundim@enron.com'
p1855
aS'ginsberg.jamie@enron.com'
p1856
aS'jessica.hangach@enron.com'
p1857
aS'jacob.shupe@enron.com'
p1858
aS'james.bruce@enron.com'
p1859
aS'd..hogan@enron.com'
p1860
aS'daniel.rogers@enron.com'
p1861
aS'tyrell.harrison@enron.com'
p1862
aS'mgravelle@caesoma.com'
p1863
aS'jones-smith.tiffany@enron.com'
p1864
aS'greg.brazaitis@enron.com'
p1865
aS'lisa.zarsky@enron.com'
p1866
aS'catherine.clark@enron.com'
p1867
aS'kelli.little@enron.com'
p1868
aS'barry.michael@enron.com'
p1869
aS'alberto.olimon@enron.com'
p1870
aS'martin.oleary@enron.com'
p1871
aS'10jribnick@interchange-energy.com'
p1872
aS'vesparza@txuenergy.com'
p1873
aS'norman.lee@enron.com'
p1874
aS'tunstabj@bp.com'
p1875
aS'r..barker@enron.com'
p1876
aS'a.plauche@enron.com'
p1877
aS'mary.franklin@enron.com'
p1878
aS'bschumachermd@yahoo.com'
p1879
aS'scott.freeman@enron.com'
p1880
aS'ed.iii@enron.com'
p1881
aS'reminders@classifieds.excitecorp.com'
p1882
aS'jody.blackburn@enron.com'
p1883
aS'murray.fichten@enron.com'
p1884
aS'shirley.hudler@enron.com'
p1885
aS'susan.rance@enron.com'
p1886
aS'gene@toenergy.com'
p1887
aS'sabina.rank@enron.com'
p1888
aS'dan.feather@enron.com'
p1889
aS'dicutsforth@attbi.com'
p1890
aS'barton.clark@enron.com'
p1891
aS'luiz.baccaro@enron.com'
p1892
aS'sangalang.cecille@enron.com'
p1893
aS'steve.gim@enron.com'
p1894
aS'mortprod@aol.com'
p1895
aS'kevin.radous@enron.com'
p1896
aS'gusto@aloha.net'
p1897
aS'michael.yowman@enron.com'
p1898
aS'laura.wente@enron.com'
p1899
aS'traceyh@panalberta.com'
p1900
aS'glen.c.lyons@exxonmobil.com'
p1901
aS'dmw@txcyber.com'
p1902
aS'berney.aucoin@enron.com'
p1903
aS'20218-1501@williams.com'
p1904
aS'vivian.nguyen@enron.com'
p1905
aS'jane@itcoworld.com'
p1906
aS'samuel.schott@enron.com'
p1907
aS'antsngdj@hotmail.com'
p1908
aS'russell.ballato@enron.com'
p1909
aS'todd_braunfeld@br-inc.ca'
p1910
aS'20280-6375@williams.com'
p1911
aS'craig.taylor@enron.com'
p1912
aS'esther.cortes@enron.com'
p1913
aS'brad.kirchhofer@enron.com'
p1914
aS'12152@enron.com'
p1915
aS'francisco.leite@enron.com'
p1916
aS'kori.loibl@enron.com'
p1917
aS'a..katz@enron.com'
p1918
aS'12300@enron.com'
p1919
aS'roneads@tristar-gas.com'
p1920
aS's..gartner@enron.com'
p1921
aS'robert.wheeler@enron.com'
p1922
aS'macdonald.bob@enron.com'
p1923
aS'leei-hong.chen@enron.com'
p1924
aS'stephanie.kimble@enron.com'
p1925
aS'melissa.rodriguez@enron.com'
p1926
aS'mezcal@teleport.com'
p1927
aS'mauricio.trejo@enron.com'
p1928
aS'harrell.kelley@enron.com'
p1929
aS'karl.klicker@enron.com'
p1930
aS'travis.winfrey@enron.com'
p1931
aS'mogas.marilyn@enron.com'
p1932
aS'pmergeanian@sempratrading.com'
p1933
aS'craig.dean@enron.com'
p1934
aS'eduardo.gil@enron.com'
p1935
aS'ryan.synnott@enron.com'
p1936
aS'suzanna.schulze@wcom.com'
p1937
aS'janette.elbertson@enron.com'
p1938
aS'w..vickers@enron.com'
p1939
aS'colin.tonks@enron.com'
p1940
aS'mike.zipperer@enron.com'
p1941
aS'liz.nyaburi@enron.com'
p1942
aS'sakom@global.net'
p1943
aS'veronica.espinoza@enron.com'
p1944
aS'trevor.randolph@enron.com'
p1945
aS'greg.martin@enron.com'
p1946
aS'julie.gomez@enron.com'
p1947
aS'mary.john@enron.com'
p1948
aS'jim.homco@enron.com'
p1949
aS'linda.guinn@enron.com'
p1950
aS'mark.schlueter@enron.com'
p1951
aS'mark.hudgens@enron.com'
p1952
aS'wharlan@kimballresources.com'
p1953
aS'lisa.lees@enron.com'
p1954
aS'valerie.villareal@enron.com'
p1955
aS'carol.clair@enron.com'
p1956
aS'clement.charbonnet@enron.com'
p1957
aS'abshirek@epenergy.com'
p1958
aS'debra.bailey@enron.com'
p1959
aS'exchange.administrator@enron.com'
p1960
aS'r..bibb@enron.com'
p1961
aS'gang00@msn.com'
p1962
aS'grant.oh@enron.com'
p1963
aS'micah.doucet@enron.com'
p1964
aS'charles.brewer@enron.com'
p1965
aS'dkohler@br-inc.com'
p1966
aS'jayant.krishnaswamy@enron.com'
p1967
aS'kelley.elizabeth@enron.com'
p1968
aS'jack.simunek@enron.com'
p1969
aS'andy.chen@enron.com'
p1970
aS'system.administrator@enron.com'
p1971
aS'keegan.farrell@enron.com'
p1972
aS'rousseau.anai@enron.com'
p1973
aS'sandy@bryanisd.org'
p1974
aS'fiorello.michelle@enron.com'
p1975
aS'rebecca.walker@enron.com'
p1976
aS'jane.tholt@enron.com'
p1977
aS'nate.blackburn@enron.com'
p1978
aS'nicknijt@bp.com'
p1979
aS'tharp.larry@enron.com'
p1980
aS'swilliams@iconconsultants.com'
p1981
aS'l..day@enron.com'
p1982
aS'mdarienzo@avistaenergy.com'
p1983
aS'bruce.langmade@fortjamesmail.com'
p1984
aS'e..haedicke@enron.com'
p1985
aS'bill.rust@enron.com'
p1986
aS'jacqueline.coleman@enron.com'
p1987
aS'stoneka@texaco.com'
p1988
aS'douglas.seaworth@enron.com'
p1989
aS'brad.lawson@enron.com'
p1990
aS'millie.gautam@enron.com'
p1991
aS'loftus.fitzwater@enron.com'
p1992
aS'teresa.seibel@enron.com'
p1993
aS'm..carlson@enron.com'
p1994
aS'e..dickson@enron.com'
p1995
aS'dafusek@aep.com'
p1996
aS'randy.pais@enron.com'
p1997
aS'rahul.seksaria@enron.com'
p1998
aS'mschulte@hsresources.com'
p1999
aS'roberto.figueroa@enron.com'
p2000
aS'regan.dolezal@enron.com'
p2001
aS'jeffrey.hurst@enron.com'
p2002
aS'davej@scana.com'
p2003
aS'brian.blakely@enron.com'
p2004
aS'a..price@enron.com'
p2005
aS'darin.presto@enron.com'
p2006
aS's.kent.williams@williams.com'
p2007
aS'spfaff@cngc.com'
p2008
aS'micah.hatten@enron.com'
p2009
aS'mbaldwin@igservice.com'
p2010
aS'benedicta.tung@enron.com'
p2011
aS'andrea.richards@enron.com'
p2012
aS'beth.apke@enron.com'
p2013
aS'pham.carl@enron.com'
p2014
aS'mark.ruane@enron.com'
p2015
aS'kam.keiser@enron.com'
p2016
aS'dwc3@pge.com'
p2017
aS'james.puntumapanitch@enron.com'
p2018
aS'joe.gold@enron.com'
p2019
aS'20324-2001@williams.com'
p2020
aS'robert.foster@enron.com'
p2021
aS'm.hall@enron.com'
p2022
aS'bryan.delahoussaye@enron.com'
p2023
aS'sergio.assad@enron.com'
p2024
aS'lisa.sutton@enron.com'
p2025
aS'danielle.saadia@enron.com'
p2026
aS'kristi.dobbs@enron.com'
p2027
aS'v.weldon@enron.com'
p2028
aS'sarah.driscoll@enron.com'
p2029
aS'acarter@westerngas.com'
p2030
aS'j..miller@enron.com'
p2031
aS'john.grace@enron.com'
p2032
aS'lauren.schlesinger@enron.com'
p2033
aS'meredith.homco@enron.com'
p2034
aS'patrick.mulvany@enron.com'
p2035
aS'e.shim@enron.com'
p2036
aS'sharon.gonzales@enron.com'
p2037
aS'hwweight@duke-energy.com'
p2038
aS'mo.elafandi@enron.com'
p2039
aS'steven.luong@enron.com'
p2040
aS'robert.vargas@enron.com'
p2041
aS'holden.salisbury@enron.com'
p2042
aS'cornella.deb@enron.com'
p2043
aS'operations@canwestgas.com'
p2044
aS'amanda.boettcher@enron.com'
p2045
aS'fred.sampaio@enron.com'
p2046
aS'chris_kelbert@transalta.com'
p2047
aS'ddeanda@water.ca.gov'
p2048
aS'jay.makanji@enron.com'
p2049
aS'donald.reinhardt@enron.com'
p2050
aS'tinaf@qstr.com'
p2051
aS'mason.hamlin@enron.com'
p2052
aS'jessica.presas@enron.com'
p2053
aS'pete.heintzelman@enron.com'
p2054
aS'salazar.lee@enron.com'
p2055
aS'peter.vecchio@enron.com'
p2056
aS'r..meyer@enron.com'
p2057
aS'garrett.ashmore@enron.com'
p2058
aS'marroquin@harrison-hurd.com'
p2059
aS'tom.gramlich@enron.com'
p2060
aS'allan.sommer@enron.com'
p2061
aS'f..campbell@enron.com'
p2062
aS'richard.broussard@enron.com'
p2063
aS'max.sonnonstine@enron.com'
p2064
aS'carlos.contreras@enron.com'
p2065
aS'finkowski-rivera.jayne@enron.com'
p2066
aS'dwswapp@duke-energy.com'
p2067
aS'executive.office@enron.com'
p2068
aS'ed.r.brewer@wgp.twc.com'
p2069
aS'millertr@bp.com'
p2070
aS'barry.schnapper@enron.com'
p2071
aS'laura.gallant@paramountres.com'
p2072
aS'anne.bike@enron.com'
p2073
aS'elizabeth.hutchinson@enron.com'
p2074
aS'sanchez@enron.com'
p2075
aS'joann.collins@enron.com'
p2076
aS'michael.eiben@enron.com'
p2077
aS'20767-5455@williams.com'
p2078
aS'amanda.schultz@enron.com'
p2079
aS'tom.ward@enron.com'
p2080
aS'roseann.engeldorf@enron.com'
p2081
aS'kelli.stevens@enron.com'
p2082
aS'ethink@enron.com'
p2083
aS'l.israelit@enron.com'
p2084
aS'david.poston@enron.com'
p2085
aS'tabo@dynegy.com'
p2086
aS'valerie.ramsower@enron.com'
p2087
aS'mark.taylor@enron.com'
p2088
aS'htarran1@txu.com'
p2089
aS'steven.south@enron.com'
p2090
aS'mainzer@enron.com'
p2091
aS'ryan@wasatchenergy.com'
p2092
aS'deirdre.mccaffrey@enron.com'
p2093
aS'brea@n2life.com'
p2094
aS'barbara.gray@enron.com'
p2095
aS'gmloper@juno.com'
p2096
aS'linda.roberts@enron.com'
p2097
aS'melissa.graves@enron.com'
p2098
aS'ken.shulklapper@enron.com'
p2099
aS'sharen.cason@enron.com'
p2100
aS'christi.nicolay@enron.com'
p2101
aS'shiraz.rehman@enron.com'
p2102
aS'jeff.ader@enron.com'
p2103
aS'shauywn.smith@enron.com'
p2104
aS'cpittma2@txu.com'
p2105
aS'mike.purcell@enron.com'
p2106
aS'kelleycg@interxcable.net.mx'
p2107
aS'joseph.piotrowski@enron.com'
p2108
aS'20962-0023@williams.com'
p2109
aS'gillian.johnson@enron.com'
p2110
aS'clifford.salawage@enron.com'
p2111
aS'victor.guggenheim@enron.com'
p2112
aS'pete.davis@enron.com'
p2113
aS'rhondamoore@aec.ca'
p2114
aS'brian.terp@enron.com'
p2115
aS'andrea.ring@enron.com'
p2116
aS'glen.norman@enron.com'
p2117
aS'danielle.marcinkowski@enron.com'
p2118
aS'felicia.ma@enron.com'
p2119
aS'lenhanson@aec.ca'
p2120
aS'tricia.escueta@enron.com'
p2121
aS'samantha.ferguson@enron.com'
p2122
aS'a..shankman@enron.com'
p2123
aS'tlester@firstunion1.com'
p2124
aS'julie.davidson@enron.com'
p2125
aS'sean.kiehne@enron.com'
p2126
aS'gabriella.cigarroa@enron.com'
p2127
aS'tammy.jaquet@enron.com'
p2128
aS'richard.deming@enron.com'
p2129
aS'enrique.lenci@enron.com'
p2130
aS'lisa.gillette@enron.com'
p2131
aS'loren.davids@enron.com'
p2132
aS'stephanie.miller@enron.com'
p2133
aS'pwinter@avistacorp.com'
p2134
aS'barbara.paige@enron.com'
p2135
aS'klein.jeanne@enron.com'
p2136
aS'dmrickards@marathonoil.com'
p2137
aS'sundar.chitradurga@enron.com'
p2138
aS'mary.hopkins@enron.com'
p2139
aS'paula.lee@enron.com'
p2140
aS'james.hughes@enron.com'
p2141
aS'mvaughn@cngc.com'
p2142
aS'lynn.pikofsky@enron.com'
p2143
aS'joe.gordon@enron.com'
p2144
aS'rfm@nwnatural.com'
p2145
aS'eric.bass@enron.com'
p2146
aS'mpolito@igires.com'
p2147
aS'dmdluho@ppco.com'
p2148
aS'laura.jones@enron.com'
p2149
aS'greg.mcclendon@enron.com'
p2150
aS'lloyd.will@enron.com'
p2151
aS'pat_mulhern@oxy.com'
p2152
aS'james.richardson@enron.com'
p2153
aS'simon.judy@enron.com'
p2154
aS'coralina.rivera@enron.com'
p2155
aS'william.abler@enron.com'
p2156
aS'miguel.garcia@enron.com'
p2157
aS'bhupesh.nagar@enron.com'
p2158
aS'larry.steele@enron.com'
p2159
aS'brush.rachael@enron.com'
p2160
aS'erinmullane@aec.ca'
p2161
aS'cecilia.cheung@enron.com'
p2162
aS'jason.williams@enron.com'
p2163
aS'nathan.will@enron.com'
p2164
aS'elizabeth.mccarthy@enron.com'
p2165
aS'tbrother@utilicorp.com'
p2166
aS'jeanette.nickell@enron.com'
p2167
aS'edward.hlopak@enron.com'
p2168
aS'sherilyn@jump.net'
p2169
aS'albert.meyers@enron.com'
p2170
aS'jabari.martin@enron.com'
p2171
aS'rduncan@cook-inlet.com'
p2172
aS'claudette.harvey@enron.com'
p2173
aS'ying.liu@enron.com'
p2174
aS'vgkr@dynegy.com'
p2175
aS'leslie.reeves@enron.com'
p2176
aS'no.address@enron.com'
p2177
aS'ltipper@enron.com'
p2178
aS'jesus.guerra@enron.com'
p2179
aS'patti.sullivan@enron.com'
p2180
aS'mbutler@tristar-gas.com'
p2181
aS'kelley_mcdermott@neodyme.com'
p2182
aS'beth.miertschin@enron.com'
p2183
aS'michelle.waldhauser@enron.com'
p2184
aS'richard.barry@enron.com'
p2185
aS'lisa.gang@enron.com'
p2186
aS'howard.marshall@enron.com'
p2187
aS'customerservice@ameritrade.com'
p2188
aS'luis.mena@enron.com'
p2189
aS'don.baughman@enron.com'
p2190
aS'kapil.ghosh@enron.com'
p2191
aS'stephanie.truss@enron.com'
p2192
aS'dcfowler@prodigy.net'
p2193
aS'cory.willis@enron.com'
p2194
aS'spilberg.larry@enron.com'
p2195
aS'scott.baukney@enron.com'
p2196
aS'michael.ritacco@enron.com'
p2197
aS'tammie.williams@enron.com'
p2198
aS'erik.serio@enron.com'
p2199
aS'pmelera@sempratrading.com'
p2200
aS'j..farmer@enron.com'
p2201
aS'dahlberg.carl@enron.com'
p2202
aS'jason.choate@enron.com'
p2203
aS'bethmcjam@aol.com'
p2204
aS'kkittleson@enserco.com'
p2205
aS'jennifer.reimer@enron.com'
p2206
aS'darren.vanek@enron.com'
p2207
aS'ssnyder@gearyenergy.com'
p2208
aS'igsjoy@ix.netcom.com'
p2209
aS'doug.gilbert-smith@enron.com'
p2210
aS'david.glessner@enron.com'
p2211
aS'elsa.spicochi@enron.com'
p2212
aS'leticia.flores@enron.com'
p2213
aS'martin.winger@enron.com'
p2214
aS'christina.sanchez@enron.com'
p2215
aS'l..mims@enron.com'
p2216
aS'jose.figueira@enron.com'
p2217
aS'juan.samudio@enron.com'
p2218
aS'diana.luu@enron.com'
p2219
aS'nelson.ferries@enron.com'
p2220
aS'bryan.lari@enron.com'
p2221
aS'brian.cohen@enron.com'
p2222
aS'dutch.quigley@enron.com'
p2223
aS'bob.mattice@engageenergy.com'
p2224
aS'cat.rocket@enron.com'
p2225
aS'jona.kimbrough@enron.com'
p2226
aS'pworrell@iconconsultants.com'
p2227
aS'greg.lewis@enron.com'
p2228
aS'narasim.kasaru@enron.com'
p2229
aS'sabrina@cook-inlet.com'
p2230
aS'executive_director@periwinklefoundation.org'
p2231
aS'thomas.meers@enron.com'
p2232
aS'bill.fortney@enron.com'
p2233
aS'dianne.seib@enron.com'
p2234
aS'samantha.taylor@enron.com'
p2235
aS'dwight.fruge@enron.com'
p2236
aS'joe.connor@enron.com'
p2237
aS'reinhardtn@epenergy.com'
p2238
aS'lisav@airmail.net'
p2239
aS'fred.boas@enron.com'
p2240
aS'kyle.schultz@enron.com'
p2241
aS'sachin.gandhi@enron.com'
p2242
aS'dcmorris@mtpower.com'
p2243
aS'baldez.christopher@enron.com'
p2244
aS'rennu.varghese@enron.com'
p2245
aS'savita.puthigai@enron.com'
p2246
aS'grace.kim@enron.com'
p2247
aS'd..barto@enron.com'
p2248
aS'steve.pan@enron.com'
p2249
aS'kevin.ruscitti@enron.com'
p2250
aS'lee.fascetti@enron.com'
p2251
aS'd..thorne@enron.com'
p2252
aS'jay.hawthorn@enron.com'
p2253
aS'scheffsp@bp.com'
p2254
aS'sgarza@coral-energy.com'
p2255
aS'wtpfluge@juno.com'
p2256
aS'buzzboys@mindspring.com'
p2257
aS'brad.mcsherry@enron.com'
p2258
aS'glist.lou@enron.com'
p2259
aS'bigelow.rich@enron.com'
p2260
aS'john.anderson@enron.com'
p2261
aS'aris.prasetiyo@enron.com'
p2262
aS'memories@corp.classmates.com'
p2263
aS'woodland.ryan@enron.com'
p2264
aS'aaustin@sppc.com'
p2265
aS'crecord@myriad.net'
p2266
aS'cschenderlein@brr.com'
p2267
aS'kpeck@ussposco.com'
p2268
aS'willie.stewart@enron.com'
p2269
aS'a..alvarado@enron.com'
p2270
aS'jlclarken@duke-energy.com'
p2271
aS'derek.anderson@enron.com'
p2272
aS'shannon.seagondollar@neg.pge.com'
p2273
aS'y..resendez@enron.com'
p2274
aS'bruce.mills@enron.com'
p2275
aS'c..aucoin@enron.com'
p2276
aS'ramesh.rao@enron.com'
p2277
aS'martymcf@pacbell.net'
p2278
aS'jariel.jenifer@enron.com'
p2279
aS'rmalley@iconconsultants.com'
p2280
aS'landgraf@ccam.com'
p2281
aS'm..hobson@enron.com'
p2282
aS'shonnie.daniel@enron.com'
p2283
aS'everyone_in_ect_montreal@enron.com'
p2284
aS'ews'
p2285
aS'carol_airey@altagas.ca'
p2286
aS'brian.steinbrueck@enron.com'
p2287
aS'paul@zairmail.com'
p2288
aS'bob.bowen@enron.com'
p2289
aS'mark.breese@enron.com'
p2290
aS'dick.jenkins@enron.com'
p2291
aS'nancyl@cybersurf.net'
p2292
aS'russell.diamond@enron.com'
p2293
aS'todd.walker@enron.com'
p2294
aS'amy.smith@enron.com'
p2295
aS'g.carroll@enron.com'
p2296
aS'energygroup@attglobal.net'
p2297
aS'inderpal.singh@enron.com'
p2298
aS'joseph.henry@enron.com'
p2299
aS'c.reyes@enron.com'
p2300
aS'ruth.ash@enron.com'
p2301
aS'david.baumbach@enron.com'
p2302
aS'liz.hillman@enron.com'
p2303
aS'm.s.@enron.com'
p2304
aS'colliw@texaco.com'
p2305
aS'rika.imai@enron.com'
p2306
aS'marci.mansfield@enron.com'
p2307
aS'jason.wolfe@enron.com'
p2308
aS'brad.mauritzen@enron.com'
p2309
aS'12255@enron.com'
p2310
aS'simone.la@enron.com'
p2311
aS'd.luna@enron.com'
p2312
aS'george.mckean@enron.com'
p2313
aS'scottatlas@yahoo.com'
p2314
aS'jkennedy@utilicorp.com'
p2315
aS'john.weakly@enron.com'
p2316
aS'billhogue@aec.ca'
p2317
aS'20373-2520@williams.com'
p2318
aS'nicole.white@enron.com'
p2319
aS'zachary.mccarroll@enron.com'
p2320
aS'kjarrell@smurfit.com'
p2321
aS'sam.francis@jicompanies.com'
p2322
aS'gregor.baumerich@enron.com'
p2323
aS'scotty.gilbert@enron.com'
p2324
aS'reason@br-inc.com'
p2325
aS'cheryl.dawes@enron.com'
p2326
aS'caver_ealy@pgn.com'
p2327
aS'robert.fuller@enron.com'
p2328
aS'steve.hirsh@enron.com'
p2329
aS'james.taylor@enron.com'
p2330
aS'jonathan.roumel@enron.com'
p2331
aS'christy.sweeney@enron.com'
p2332
aS'renee@levyandwurz.com'
p2333
aS'steed.chris@enron.com'
p2334
aS'gerald.gilbert@enron.com'
p2335
aS'sandy.haldeman@enron.com'
p2336
aS'garrett@jobmenu.com'
p2337
aS'dunkin.ann@enron.com'
p2338
aS'legal.7@enron.com'
p2339
aS's..shively@enron.com'
p2340
aS'weaverg@dom.com'
p2341
aS'edward.baughman@enron.com'
p2342
aS'erin.willis@enron.com'
p2343
aS'linbeck.bayard@enron.com'
p2344
aS'palice.gray@enron.com'
p2345
aS'joanne.garner@enron.com'
p2346
aS'mitra.mujica@enron.com'
p2347
aS'steve_croy@eogresources.com'
p2348
aS'kunapuli.vishwanath@enron.com'
p2349
aS'jennifer.newbrough@enron.com'
p2350
aS'martha.braddy@enron.com'
p2351
aS'20215-7485@williams.com'
p2352
aS'simon.yeung@enron.com'
p2353
aS'amie.ha@enron.com'
p2354
aS'debra.johnson@enron.com'
p2355
aS'william.brown@swgas.com'
p2356
aS'jebong.lee@enron.com'
p2357
aS'fred_jackson@knmktg.com'
p2358
aS'angelo.miroballi@enron.com'
p2359
aS'jeffrey.miller@enron.com'
p2360
aS'suzanne.adams@enron.com'
p2361
aS'simon.christopher@enron.com'
p2362
aS'jeffrey.shankman@enron.com'
p2363
aS'johnson.rick@epenergy.com'
p2364
aS'melanie.hunter@neg.pge.com'
p2365
aS'rosalee.fleming@enron.com'
p2366
aS'bruno.messer@enron.com'
p2367
aS'loriv@aurora-gas.com'
p2368
aS'george.wang@enron.com'
p2369
aS'w-rubink@pop.tamu.edu'
p2370
aS'jonathan.ryan@enron.com'
p2371
aS'jim.jameson@cabotog.com'
p2372
aS'robyn.zivic@enron.com'
p2373
aS'michael.tully@enron.com'
p2374
aS'kelley.mcintyre@enron.com'
p2375
aS'mjsestak@aep.com'
p2376
aS'kimberly.allen@enron.com'
p2377
aS'brandee.jackson@enron.com'
p2378
aS'd..steffes@enron.com'
p2379
aS'valter.stoiani@enron.com'
p2380
aS'mike.morrison@enron.com'
p2381
aS'ccoe@calpine.com'
p2382
aS'20274-4724@williams.com'
p2383
aS'monika.causholli@enron.com'
p2384
aS'lilia.penagos@enron.com'
p2385
aS'david.kubalak@enron.com'
p2386
aS'larry.may@enron.com'
p2387
aS'marde.driscoll@enron.com'
p2388
aS'michelle.yee@enron.com'
p2389
aS'james.bakondy@enron.com'
p2390
aS'john.hodge@enron.com'
p2391
aS'swg_gaspur@swgas.com'
p2392
aS'ken.curry@enron.com'
p2393
aS'carole.w.poulter@usa.conoco.com'
p2394
aS'j..sturm@enron.com'
p2395
aS'wendy.conwell@enron.com'
p2396
aS'ron.smith@ashgrove.com'
p2397
aS'g.marks@enron.com'
p2398
aS'cshenderlein@brr.com'
p2399
aS'petersm@energystore.net'
p2400
aS'vaibhav.rekhi@enron.com'
p2401
aS'arienzo@avistaenergy.com'
p2402
aS'ngtsllc@fastlane.net'
p2403
aS'john.postlethwaite@enron.com'
p2404
aS'michael.wood@enron.com'
p2405
aS'parry.betsy@enron.com'
p2406
aS'd..poppa@enron.com'
p2407
aS'brad.merrell@enron.com'
p2408
aS'carlos.alatorre@enron.com'
p2409
aS'bob.williams@cmenergy.com'
p2410
aS'kevin.coyle@cmenergy.com'
p2411
aS'michael.roan@enron.com'
p2412
aS'yuan.tian@enron.com'
p2413
aS'cridin@puget.com'
p2414
aS'lrobert@desc.dla.mil'
p2415
aS'claude.tellis@enron.com'
p2416
aS'darlene.mckeever@enron.com'
p2417
aS'rahil.jafry@enron.com'
p2418
aS'christiaan.huizer@enron.com'
p2419
aS'diane.goode@enron.com'
p2420
aS'klegg@utilicorp.com'
p2421
aS'hannon.daniel@enron.com'
p2422
aS'lisa.rizzo@enron.com'
p2423
aS'brad.jones@enron.com'
p2424
aS'sarah.goodpastor@enron.com'
p2425
aS'juan.cabrales@enron.com'
p2426
aS'victor.gonzalez@enron.com'
p2427
aS'michele.wilks@enron.com'
p2428
aS'jennifer.shipos@enron.com'
p2429
aS'janet.moore@enron.com'
p2430
aS'ted.huang@enron.com'
p2431
aS'krishna.lattupally@enron.com'
p2432
aS'j..hanson@enron.com'
p2433
aS'chaun.roberts@enron.com'
p2434
aS'heidi.dubose@enron.com'
p2435
aS'timothy.blanchard@enron.com'
p2436
aS'surowiec.glenn@enron.com'
p2437
aS'hyer.dan@enron.com'
p2438
aS'mflaman@tcel.com'
p2439
aS'lissa.boatright@enron.com'
p2440
aS'yauch.janet@enron.com'
p2441
aS'shielah.castro@enron.com'
p2442
aS'priya.jaisinghani@enron.com'
p2443
aS'daniel.kang@enron.com'
p2444
aS'angelly.mike@enron.com'
p2445
aS'joan.quick@enron.com'
p2446
aS'elizabeth.navarro@enron.com'
p2447
aS'r..bart@enron.com'
p2448
aS'robert.cotten@enron.com'
p2449
aS'michael.howe@enron.com'
p2450
aS'cbarron@arn.net'
p2451
aS'admin.enron@enron.com'
p2452
aS'tomlee@ncpa.com'
p2453
aS'shawn.macphail@enron.com'
p2454
aS'phenicia.olivier@enron.com'
p2455
aS'raul.yzquierdo@enron.com'
p2456
aS'mreed@enserco.com'
p2457
aS'e..jones@enron.com'
p2458
aS'janet.tran@enron.com'
p2459
aS'vivek.shah@enron.com'
p2460
aS'shelly.mendel@enron.com'
p2461
aS'frazier.king@enron.com'
p2462
aS'r..guinn@enron.com'
p2463
aS'dl-ga-all_enw@enron.com'
p2464
aS'gcomfort@igires.com'
p2465
aS'roy.armitage@enron.com'
p2466
aS'eric.moon@enron.com'
p2467
aS'j..heinitz@enron.com'
p2468
aS'george.thomas@enron.com'
p2469
aS'carlos.vicens@enron.com'
p2470
aS'dean.laurent@enron.com'
p2471
aS'al.gallagher@enron.com'
p2472
aS'kayla.crenshaw@enron.com'
p2473
aS'michael.berger@enron.com'
p2474
aS'christopher.bruce@msdw.com'
p2475
aS'todd.bland@enron.com'
p2476
aS'isabel.resendez@enron.com'
p2477
aS'taylor.mickey@enron.com'
p2478
aS'stephanie.panus@enron.com'
p2479
aS'emmanuel.mangin@enron.com'
p2480
aS'susan.trevino@enron.com'
p2481
aS'thomas.lowell@enron.com'
p2482
aS'dfox@westerngas.com'
p2483
aS'jonathan.mckay@enron.com'
p2484
aS'eric.scott@enron.com'
p2485
aS'marina.titova@enron.com'
p2486
aS'f.samudio@enron.com'
p2487
aS'michelle.nelson@enron.com'
p2488
aS'meredith.eggleston@enron.com'
p2489
aS'ryan.deane@enron.com'
p2490
aS'dwinters@avistacorp.com'
p2491
aS'k..patton@enron.com'
p2492
aS'sscott5@enron.com'
p2493
aS'dale.rasmussen@enron.com'
p2494
aS'20527-1775@williams.com'
p2495
aS'erin_m_delsing@reliantenergy.com'
p2496
aS'doug.leach@enron.com'
p2497
aS'phillip.platter@enron.com'
p2498
aS'andrew.edison@enron.com'
p2499
aS'l..garcia@enron.com'
p2500
aS'adleman.geoffrey@enron.com'
p2501
aS'lon.draper@enron.com'
p2502
aS'joshua.king@enron.com'
p2503
aS'taffy.milligan@enron.com'
p2504
aS'robert.george@enron.com'
p2505
aS'rajib.saha@enron.com'
p2506
aS'a.ashmore@enron.com'
p2507
aS'hien.trinh@enron.com'
p2508
aS'benbow.penny@enron.com'
p2509
aS'sarah.heineman@enron.com'
p2510
aS'lewellcl@bp.com'
p2511
aS'genady.batrak@enron.com'
p2512
aS'diana.scholtes@enron.com'
p2513
aS'jim.harlan@pacificorp.com'
p2514
aS'20494-8047@williams.com'
p2515
aS'gary.buck@enron.com'
p2516
aS'rgay@ect.enron.com'
p2517
aS'jwilmotte@avistaenergy.com'
p2518
aS'steve.nat@enron.com'
p2519
aS'syallouz@premstar.com'
p2520
aS'posey.martinez@enron.com'
p2521
aS'lisa.costello@enron.com'
p2522
aS'halbourlon@reliantenergy.com'
p2523
aS'samuel.blaylock@enron.com'
p2524
aS'oaugenstein@br-inc.com'
p2525
aS'dpriese@worldnet.att.net'
p2526
aS'suresh.vasan@enron.com'
p2527
aS'tcarlson@apsc.com'
p2528
aS'enron.announcements@enron.com'
p2529
aS'kim.durham@enron.com'
p2530
aS'chad.pennix@enron.com'
p2531
aS'bullington.john@enron.com'
p2532
aS'peter.hoyt@enron.com'
p2533
aS'alice.wright@enron.com'
p2534
aS'jennifer.mcquade@enron.com'
p2535
aS'group.enron@enron.com'
p2536
aS'neil.jackson@enron.com'
p2537
aS'gary.bryan@enron.com'
p2538
aS'reginald.smith@enron.com'
p2539
aS'ma@enron.com'
p2540
aS'terrie.wheeler@enron.com'
p2541
aS'djohnson@coral-energy.com'
p2542
aS'david.junus@enron.com'
p2543
aS'nlissel@enserco.com'
p2544
aS'ivan.donaldson@enron.com'
p2545
aS'meyer.rock@enron.com'
p2546
aS'gustavo.giron@enron.com'
p2547
aS'linda.simmons@enron.com'
p2548
aS'jason.morris@enron.com'
p2549
aS'rob.cole@enron.com'
p2550
aS'jeff.whippo@enron.com'
p2551
aS'charles.wickman@enron.com'
p2552
aS'bbrunel@smud.org'
p2553
aS'ryan.watt@enron.com'
p2554
aS'tony.harris@enron.com'
p2555
aS'scotts@kimballenergy.com'
p2556
aS'young.lee@enron.com'
p2557
aS'robert.walker@enron.com'
p2558
aS'bill.berkeland@enron.com'
p2559
aS'deanrodgers@kaseco.com'
p2560
aS'bymank@wdni.com'
p2561
aS'nclark@velaw.com'
p2562
aS'christine.dinh@enron.com'
p2563
aS'alan.comnes@enron.com'
p2564
aS'boulayka@bp.com'
p2565
aS'mark.guzman@enron.com'
p2566
aS'leslie.hansen@enron.com'
p2567
aS'steve.walton@enron.com'
p2568
aS'weaverwoodworks@cs.com'
p2569
aS'gautam.gupta@enron.com'
p2570
aS'mike_bucher@oxy.com'
p2571
aS'jennifer.mcclain@enron.com'
p2572
aS'clayton.vernon@enron.com'
p2573
aS'wayne.vinson@enron.com'
p2574
aS'derek.bailey@enron.com'
p2575
aS'bo.petersen@enron.com'
p2576
aS'madhup.kumar@enron.com'
p2577
aS'chuchu.wang@enron.com'
p2578
aS'rosie.m.gonzalez@chase.com'
p2579
aS'kelly.lovvorn@enron.com'
p2580
aS'lino.mastrangelo@enron.com'
p2581
aS'pinto.leite@enron.com'
p2582
aS'vikas.dwivedi@enron.com'
p2583
aS'zhiyong.wei@enron.com'
p2584
aS'keith.holst@enron.com'
p2585
aS'mark.adleman@enron.com'
p2586
aS'rzemljak@mtpower.com'
p2587
aS'20877-7512@williams.com'
p2588
aS'chip.cox@enron.com'
p2589
aS'juan.hernandez@enron.com'
p2590
aS'herron.carol@enron.com'
p2591
aS'cwhite@brr.com'
p2592
aS'justin.timothy@enron.com'
p2593
aS'g..slaughter@enron.com'
p2594
aS'george.wood@enron.com'
p2595
aS'blake.swanson@enron.com'
p2596
aS'michael.jacobson@enron.com'
p2597
aS'patricia.wiederholt@enron.com'
p2598
aS'dan.hyvl@enron.com'
p2599
aS'ben.jacoby@enron.com'
p2600
aS'david.redmond@enron.com'
p2601
aS'linda@progas.com'
p2602
aS'djenergy@dowjones.com'
p2603
aS'c.womble@enron.com'
p2604
aS'mary.smith@enron.com'
p2605
aS'm..fenner@enron.com'
p2606
aS'sarah.smith@enron.com'
p2607
aS'weijing.shen@enron.com'
p2608
aS'gwendolyn.gray@enron.com'
p2609
aS'bernard.dahanayake@enron.com'
p2610
aS'lorchard@commrisk.bm'
p2611
aS'brad.miller@enron.com'
p2612
aS'ed.hlopak@enron.com'
p2613
aS'ashley.worthing@enron.com'
p2614
aS'richard.connor@enron.com'
p2615
aS'neuhaus.radford@enron.com'
p2616
aS'sharper@avistaenergy.com'
p2617
aS'altradegasscheduling@altra.com'
p2618
aS'coo.jeff@enron.com'
p2619
aS'robert.epps@cinergy.com'
p2620
aS'kim.ward@enron.com'
p2621
aS'michelle.zhang@enron.com'
p2622
aS'debra.davidson@enron.com'
p2623
aS'paul.choi@enron.com'
p2624
aS'klambe@puget.com'
p2625
aS'jarek.dybowski@enron.com'
p2626
aS'klvaldez@calmil.gylrd.com'
p2627
aS'lindqdc@texaco.com'
p2628
aS'alex.huang@enron.com'
p2629
aS'antoinette.beale@enron.com'
p2630
aS'janet_aery@vintageful.com'
p2631
aS'general.announcement@enron.com'
p2632
aS'stephanie.piwetz@enron.com'
p2633
aS'court.peggy@enron.com'
p2634
aS'brant.reves@enron.com'
p2635
aS'andrea.hauser@enron.com'
p2636
aS'mark.smith@enron.com'
p2637
aS'm..love@enron.com'
p2638
aS'david.lekach@enron.com'
p2639
aS'shorton@coral-energy.com'
p2640
aS'jdunlap@lcc.net'
p2641
aS'everett.plante@enron.com'
p2642
aS'tstringer@huntway.com'
p2643
aS'savithri.hospeti@enron.com'
p2644
aS'terris.kyle-watson@enron.com'
p2645
aS'orttm@marietta.edu'
p2646
aS'melba.lozano@enron.com'
p2647
aS'jshadie@idahopower.com'
p2648
aS'eric.rhodes@enron.com'
p2649
aS'amber.ebow@enron.com'
p2650
aS'justin.boyd@enron.com'
p2651
aS'anita.reubens@swgas.com'
p2652
aS'todd.lambert@enron.com'
p2653
aS'jim.sugrue@enron.com'
p2654
aS'n..stewart@enron.com'
p2655
aS'lizzette.palmer@enron.com'
p2656
aS'mark.dypiangco@enron.com'
p2657
aS'12364@enron.com'
p2658
aS'michael.croffie@enron.com'
p2659
aS'carl.reynolds@tdcj.state.tx.us'
p2660
aS'becky.pitre@enron.com'
p2661
aS'jake.thomas@enron.com'
p2662
aS'will.chen@enron.com'
p2663
aS'key.kasravi@enron.com'
p2664
aS'bmenconi@flash.net'
p2665
aS'r..lilly@enron.com'
p2666
aS'peggy.hedstrom@enron.com'
p2667
aS'fletcher.sturm@enron.com'
p2668
aS'matt.burleigh@enron.com'
p2669
aS'hollen3000@hotmail.com'
p2670
aS'koko.cordova@ps.gecs.com'
p2671
aS'gcvenz@duke-energy.com'
p2672
aS'bianca.ornelas@enron.com'
p2673
aS'kharrell@periwinklefoundation.org'
p2674
aS'kyriakos.frantzeskakis@enron.com'
p2675
aS'randall.gay@enron.com'
p2676
aS'bob.hillier@enron.com'
p2677
aS'alex.silver@enron.com'
p2678
aS'robert.turner@cmenergy.com'
p2679
aS'j..simmons@enron.com'
p2680
aS'ashley.deiter@enron.com'
p2681
aS'derrick.ross@enron.com'
p2682
aS'john.swinney@enron.com'
p2683
aS'victoria.versen@enron.com'
p2684
aS'sandra.brawner@enron.com'
p2685
aS'emhendry@duke-energy.com'
p2686
aS'daniel.jenkins@enron.com'
p2687
aS'd..winfree@enron.com'
p2688
aS'bland@enron.com'
p2689
aS'kate.symes@enron.com'
p2690
aS'rebecca.cantrell@enron.com'
p2691
aS'dbarre@puget.com'
p2692
aS'oscar.dalton@enron.com'
p2693
aS'center.dl-portland@enron.com'
p2694
aS'rick.wadle@mirant.com'
p2695
aS'wood.tana@enron.com'
p2696
aS'susan.scott@enron.com'
p2697
aS'beebuzzboys@aol.com'
p2698
aS'michael.mier@enron.com'
p2699
aS'ndrenergygroup@earthlink.net'
p2700
aS'robbinkr@bp.com'
p2701
aS'christopher.chenoweth@enron.com'
p2702
aS'robert.stalford@enron.com'
p2703
aS'bcohen@br-inc.com'
p2704
aS'darena@national-energy.com'
p2705
aS'alexander.mcelreath@enron.com'
p2706
aS'cynthiab@panalberta.com'
p2707
aS'mary.hain@enron.com'
p2708
aS'nick.politis@enron.com'
p2709
aS'chris.dorland@enron.com'
p2710
aS'edenh@mindspring.com'
p2711
aS'brandon.guderian@williams.com'
p2712
aS'kyu-bong.lee@enron.com'
p2713
aS'jatinder.dua@enron.com'
p2714
aS'stephanie.sever@enron.com'
p2715
aS'bill.cordes@enron.com'
p2716
aS'productdev@mail2.appdev.com'
p2717
aS'carol.north@enron.com'
p2718
aS'adnan.patel@enron.com'
p2719
aS'jason.seigal@enron.com'
p2720
aS'rudwell.johnson@enron.com'
p2721
aS'tjmi@dynegy.com'
p2722
aS'jmhasti@ppco.com'
p2723
aS'e.sullo@enron.com'
p2724
aS'zal.masani@enron.com'
p2725
aS'clickathome@enron.com'
p2726
aS'patrick.tronnier@oatiinc.com'
p2727
aS'hj1004@swt.edu'
p2728
aS'vanessa.griffin@enron.com'
p2729
aS'elsie.lew@enron.com'
p2730
aS'nell.browning@enron.com'
p2731
aS'lanny@airmail.net'
p2732
aS'powerds@aol.com'
p2733
aS'esther.dasilva@enron.com'
p2734
aS'kenneth.lim@enron.com'
p2735
aS'jessica.anaya@enron.com'
p2736
aS'paul.racicot@enron.com'
p2737
aS'williams.joe@enron.com'
p2738
aS'jerald.surface@enron.com'
p2739
aS's..bradford@enron.com'
p2740
aS'castlen.moore@enron.com'
p2741
aS'yen.nguyen@enron.com'
p2742
aS'jaikishore.bharathi@enron.com'
p2743
aS'benjamin.woods@enron.com'
p2744
aS'john.peyton@enron.com'
p2745
aS'chairman.enron@enron.com'
p2746
aS'barry.tycholiz@enron.com'
p2747
aS'kacee.downey@enron.com'
p2748
aS'jfharris@gateway.net'
p2749
aS'john.kiani-aslani@enron.com'
p2750
aS'houston'
p2751
aS'christine.philipps@engageenergy.com'
p2752
aS'kathleen.clark@enron.com'
p2753
aS'steve.jacobellis@enron.com'
p2754
aS'gvmotors@gte.net'
p2755
aS'timothy.coffing@enron.com'
p2756
aS'd.kuhn@oneok.com'
p2757
aS'james.collins@enron.com'
p2758
aS'michael.spruiell@enron.com'
p2759
aS'santiago.garcia@enron.com'
p2760
aS'a..mausser@enron.com'
p2761
aS'enrique.cadena@enron.com'
p2762
aS'brent.taylor@enron.com'
p2763
aS'ann.murphy@enron.com'
p2764
aS'bruce_langmade@gapac.com'
p2765
aS'katherine.kelly@enron.com'
p2766
aS'brad.horn@enron.com'
p2767
aS'sreza@br-inc.com'
p2768
aS'asouth85@aol.com'
p2769
aS'scott.mills@enron.com'
p2770
aS'gary.nelson@enron.com'
p2771
aS'pgrable@cngc.com'
p2772
aS'mnason@coral-energy.com'
p2773
aS'grace.rodriguez@enron.com'
p2774
aS'dkuhn@oneok.com'
p2775
aS'majed.nachawati@enron.com'
p2776
aS'robert.s.checketts@wgp.twc.com'
p2777
aS'bcampbell@ci.burbank.ca.us'
p2778
aS'kenja@cnrl.com'
p2779
aS'chad.landry@enron.com'
p2780
aS'souad.mahmassani@enron.com'
p2781
aS'daniel.hyslop@enron.com'
p2782
aS'bdahncke@pcenergy.com'
p2783
aS'mark.confer@enron.com'
p2784
aS'salmoncolo@worldnet.att.net'
p2785
aS'hdjaustin@aol.com'
p2786
aS'20827-2718@williams.com'
p2787
aS'hilburn.henry@enron.com'
p2788
aS'urbanik@enron.com'
p2789
aS'william.mattas@coastalcorp.com'
p2790
aS'hoffmamc@bp.com'
p2791
aS'es.net@mailman.enron.com'
p2792
aS'martin..gonzalez@enron.com'
p2793
aS'4walkers@vvm.com'
p2794
aS'terry.pickul@usa.conoco.com'
p2795
aS'ragan.bond@enron.com'
p2796
aS'administration.enron@enron.com'
p2797
aS'shanna.boudreaux@enron.com'
p2798
aS'kelly.boots@enron.com'
p2799
aS'gordon.mckillop@enron.com'
p2800
aS'12351@enron.com'
p2801
aS'susan.lindberg@enron.com'
p2802
aS's..bryan@enron.com'
p2803
aS'paul.lewis@enron.com'
p2804
aS'bill.williams@enron.com'
p2805
aS'joe.stepenovitch@enron.com'
p2806
aS'joel.chua@enron.com'
p2807
aS'pressler.townes@enron.com'
p2808
aS'troy.klussmann@enron.com'
p2809
aS'demerson@energy.twc.com'
p2810
aS'sherry.pendegraft@enron.com'
p2811
aS'elizabeth.sager@enron.com'
p2812
aS'fuehne.deanna@enron.com'
p2813
aS'dent.lisa@enron.com'
p2814
aS'joanne_engen@transcanada.com'
p2815
aS'jonathan.anderson@enron.com'
p2816
aS'beeweaver@tca.net'
p2817
aS'ssmgranmayeh@msn.com'
p2818
aS'christina.albers@enron.com'
p2819
aS'harrelson.kristin@enron.com'
p2820
aS'melissa.becker@enron.com'
p2821
aS'duvalma@texaco.com'
p2822
aS'peter.keavey@enron.com'
p2823
aS'alicia.jenkins@enron.com'
p2824
aS'm..scott@enron.com'
p2825
aS'junonajonas@compuserve.com'
p2826
aS'jarriel.scott@enron.com'
p2827
aS'lhelm85199@aol.com'
p2828
aS'gilesmh@bp.com'
p2829
aS'kelly.loocke@enron.com'
p2830
aS'victoria.johnson@enron.com'
p2831
aS'georgia.blanchard@enron.com'
p2832
aS'garibaldis.ramirez@enron.com'
p2833
aS'james.d.steffes@enron.com'
p2834
aS'alex.hernandez@enron.com'
p2835
aS'janie.aguayo@enron.com'
p2836
aS'robert.allwein@enron.com'
p2837
aS'robs@usgt.com'
p2838
aS'drothrock@cmta.net'
p2839
aS'dan.dietrich@enron.com'
p2840
aS'david.hunker@enron.com'
p2841
aS'gregory.schockling@enron.com'
p2842
aS'jennifer.teel@ec-power.com'
p2843
aS'zoraida.gonzalez@enron.com'
p2844
aS'20244-8449@williams.com'
p2845
aS'tom.chapman@enron.com'
p2846
aS'mauricio.marquez@enron.com'
p2847
aS'nelson.wu@enron.com'
p2848
aS'jhaskey@coral-energy.com'
p2849
aS'alain.diza@enron.com'
p2850
aS'rgruber@avistacorp.com'
p2851
aS'eboni.troupe@enron.com'
p2852
aS'robert.harp@engageenergy.com'
p2853
aS'dripley@ect.enron.com'
p2854
aS'chip_croy@eogresources.com'
p2855
aS'eric.linder@enron.com'
p2856
aS'e..bernard@enron.com'
p2857
aS'john.malowney@enron.com'
p2858
aS'dblack@obgynassociates.com'
p2859
aS'sarah.mulholland@enron.com'
p2860
aS'david.jones@enron.com'
p2861
aS'kims@kimballenergy.com'
p2862
aS'dan.prudenti@enron.com'
p2863
aS'nidia.mendoza@enron.com'
p2864
aS'johnru@qstr.com'
p2865
aS'james.wininger@enron.com'
p2866
aS'jason.biever@enron.com'
p2867
aS'lee.papayoti@enron.com'
p2868
aS'audrey.cook@enron.com'
p2869
aS'niels_a_vervloet@reliantenergy.com'
p2870
aS'wesley.thoman@enron.com'
p2871
aS'todd.perry@enron.com'
p2872
aS'issuealert@scientech.com'
p2873
aS'patrick.ryder@enron.com'
p2874
aS'customerrelations@geico.com'
p2875
aS'brad.mckay@enron.com'
p2876
aS'marsha.francis@enron.com'
p2877
aS'ava.piekarski-miller@enron.com'
p2878
aS'dtro@dynegy.com'
p2879
aS'john.grass@enron.com'
p2880
aS'judy.townsend@enron.com'
p2881
aS'mark.broadfoot@enron.com'
p2882
aS'sbailey@crusescott.com'
p2883
aS'lisa@good.com'
p2884
aS'tammy.brennig@enron.com'
p2885
aS'm..harmon@enron.com'
p2886
aS'raj.thapar@enron.com'
p2887
aS'plarue@iconconsultants.com'
p2888
aS'mark.friedman@enron.com'
p2889
aS'chairman.office@enron.com'
p2890
aS'valarie.barnes@enron.com'
p2891
aS'joe.darensbourg@enron.com'
p2892
aS'faria.silvana@enron.com'
p2893
aS'dsanchez@apqc.org'
p2894
aS'pam.becton@enron.com'
p2895
aS'staines@enron.com'
p2896
aS'angela@cook-inlet.com'
p2897
aS'marlene.hilliard@enron.com'
p2898
aS'm..smith@enron.com'
p2899
aS'petrello.cindy@enron.com'
p2900
aS'amy.buehler@enron.com'
p2901
aS'n.shah@enron.com'
p2902
aS'gary.bode@enron.com'
p2903
aS'bertrand.dussert@enron.com'
p2904
aS's_mirmira@hotmail.com'
p2905
aS'datren.williams@enron.com'
p2906
aS'andrew.champion@enron.com'
p2907
aS'mitch.robinson@enron.com'
p2908
aS'y.choi@enron.com'
p2909
aS'bryce.schneider@enron.com'
p2910
aS'carol.st.@enron.com'
p2911
aS'kevin.sweeney@enron.com'
p2912
aS'aaron.martinsen@enron.com'
p2913
aS'chughes@gearyenergy.com'
p2914
aS'robert.parry@enron.com'
p2915
aS'nayan.dattani@enron.com'
p2916
aS'steve.swain@enron.com'
p2917
aS'erin.rice@enron.com'
p2918
aS'shelly.christner@enron.com'
p2919
aS'courtney.gibbs@enron.com'
p2920
aS'holly.keiser@enron.com'
p2921
aS'jeff.pearson@enron.com'
p2922
aS'daniel.salinas@enron.com'
p2923
aS'mike.croucher@enron.com'
p2924
aS'gwendolyn.williams@enron.com'
p2925
aS'wyndel.mcnamara@enron.com'
p2926
aS'jennifer_owen@pgn.com'
p2927
aS'bhall@cngc.com'
p2928
aS'claudia.meraz@enron.com'
p2929
aS'20213-4591@williams.com'
p2930
aS'john.gordon@enron.com'
p2931
aS'darrell.aguilar@enron.com'
p2932
aS'patricia.weatherspoon@enron.com'
p2933
aS'mitchell_zumwalt@nexeninc.com'
p2934
aS'winston.cheng@enron.com'
p2935
aS'george.smith@enron.com'
p2936
aS'john.swafford@enron.com'
p2937
aS'rnelson@bfcden.com'
p2938
aS'vinger.dana@enron.com'
p2939
aS'bday@mcmurry.net'
p2940
aS'jennifer.thome@enron.com'
p2941
aS'kelly_aitken@gulf.ca'
p2942
aS'edmund.gaither@enron.com'
p2943
aS'paul.atha@southernenergy.com'
p2944
aS'djones@calpine.com'
p2945
aS'fred.mitro@enron.com'
p2946
aS'gkugler@brr.com'
p2947
aS'shilpa.chunchu@enron.com'
p2948
aS'candace.bywaters@enron.com'
p2949
aS'lorie.leigh@enron.com'
p2950
aS'johnson.frank@enron.com'
p2951
aS'john.howton@enron.com'
p2952
aS'kathy.link@enron.com'
p2953
aS'deborahs@kimballenergy.com'
p2954
aS'l..gay@enron.com'
p2955
aS'jelmore@txuenergy.com'
p2956
aS'jeff.pena@enron.com'
p2957
aS'val_yildirok@pgn.com'
p2958
aS'tammie.huthmacher@enron.com'
p2959
aS'fackel@texaco.com'
p2960
aS'crystal.hyde@enron.com'
p2961
aS'kim.perkins@enron.com'
p2962
aS'philip.berry@enron.com'
p2963
aS'joseph.bertucci@enron.com'
p2964
aS'ramanarao.tamma@enron.com'
p2965
aS'20355-5010@williams.com'
p2966
aS'exie.tonsall@enron.com'
p2967
aS'donna.sheidun@enron.com'
p2968
aS'alma.carrillo@enron.com'
p2969
aS'skip_s_thevenot@reliantenergy.com'
p2970
aS'20520-4788@williams.com'
p2971
aS'alexandra.villarreal@enron.com'
p2972
aS'michelle.lokay@enron.com'
p2973
aS'maximilian.sell@enron.com'
p2974
aS'wesley.perry@enron.com'
p2975
aS'mark.warno@acnenergy.com'
p2976
aS'kselland@avistaenergy.com'
p2977
aS'j..ewing@enron.com'
p2978
aS'cchao@cook-inlet.com'
p2979
aS'patrick.grant@enron.com'
p2980
aS'tom.may@enron.com'
p2981
aS'louise.allen@numac.com'
p2982
aS'cdecotea@westerngas.com'
p2983
aS'karl.tomlinson@enron.com'
p2984
aS'f.li@enron.com'
p2985
aS'harry.kingerski@enron.com'
p2986
aS'tom.baldwin@enron.com'
p2987
aS'shereka.jefferson@enron.com'
p2988
aS'farzad.farhangnia@enron.com'
p2989
aS'cindy.richardson@enron.com'
p2990
aS'12476@enron.com'
p2991
aS'everyone_in_ect_toronto@enron.com'
p2992
aS'anne.koehler@enron.com'
p2993
aS'panderse@utilicorp.com'
p2994
aS'kelmo3@hotmail.com'
p2995
aS'jfgregory@pbsj.com'
p2996
aS'scott.tackett@enron.com'
p2997
aS'eric.irani@enron.com'
p2998
aS'12633@enron.com'
p2999
aS'tracy.wood@enron.com'
p3000
aS'steve.vavrik@enron.com'
p3001
aS'l..nowlan@enron.com'
p3002
aS'brad.coleman@enron.com'
p3003
aS'clint.freeland@enron.com'
p3004
aS'amycan2@hotmail.com'
p3005
aS'lloydb@onramp.net'
p3006
aS'steve.szablya@xemkt.com'
p3007
aS'margie.nguyen@enron.com'
p3008
aS'john.suarez@enron.com'
p3009
aS'hang.bui@enron.com'
p3010
aS'martin.gonzalez@enron.com'
p3011
aS'donald.howard@enron.com'
p3012
aS'mike.carson@enron.com'
p3013
aS'9099632747@airmessage.net'
p3014
aS'gue.warren@enron.com'
p3015
aS'lori.boudreaux@enron.com'
p3016
aS'r..conner@enron.com'
p3017
aS'suvinay.sinha@enron.com'
p3018
aS'kelder@navigantconsulting.com'
p3019
aS'camille.gerard@enron.com'
p3020
aS'cory_empey@br-inc.ca'
p3021
aS'ccoyle@americansoda.com'
p3022
aS'peter.bennett@enron.com'
p3023
aS'javier.li@enron.com'
p3024
aS'samuel.wehn@enron.com'
p3025
aS'cmiller@smud.org'
p3026
aS'russell.murrell@enron.com'
p3027
aS'yevgeny.frolov@enron.com'
p3028
aS'jwpowell@duke-energy.com'
p3029
aS'm.palczer@enron.com'
p3030
aS'perfmgmt@enron.com'
p3031
aS'steve.montov@enron.com'
p3032
aS'paul.gendron@neg.pge.com'
p3033
aS'lisa.shoemake@enron.com'
p3034
aS'jeremy.lo@enron.com'
p3035
aS'carla.j.johnson@usa.conoco.com'
p3036
aS'gilbert.brooke@enron.com'
p3037
aS'lindsajh@er.oge.com'
p3038
aS'olumide.akanni-owoo@enron.com'
p3039
aS'20557-1176@williams.com'
p3040
aS'russells@kimballenergy.com'
p3041
aS'rick.dumonte@enron.com'
p3042
aS'thegregorys@mindspring.com'
p3043
aS'cary.carrabine@enron.com'
p3044
aS'bfrench@avistaenergy.com'
p3045
aS'r..wiesepape@enron.com'
p3046
aS'chris.lenartowicz@enron.com'
p3047
aS'mmbaker@duke-energy.com'
p3048
aS'vikram.kulkarni@enron.com'
p3049
aS'george.ji@enron.com'
p3050
aS'douglas.schroeder@enron.com'
p3051
aS'kevin.bosse@enron.com'
p3052
aS'ryan.herron@enron.com'
p3053
aS'tammi.depaolis@enron.com'
p3054
aS'jmenconi@adv-eng-ser-inc.com'
p3055
aS'joanne.harris@enron.com'
p3056
aS'flavia.negrete@enron.com'
p3057
aS'j.bagwell@enron.com'
p3058
aS'james.mayeaux@enron.com'
p3059
aS'sally.chen@enron.com'
p3060
aS'ian.dundas@enron.com'
p3061
aS'shannon.kelley@enron.com'
p3062
aS'rick.stone@stanford.edu'
p3063
aS'dalbers@avistacorp.com'
p3064
aS'twickersham@enserco.com'
p3065
aS'matt.maxwell@enron.com'
p3066
aS'patrick.hanse@enron.com'
p3067
aS'kwilkinson@br-inc.com'
p3068
aS'dsuter@sempratrading.com'
p3069
aS'joe.capasso@enron.com'
p3070
aS'wendi.lebrocq@enron.com'
p3071
aS'matthew.lord@elpaso.com'
p3072
aS'sandy.olitsky@enron.com'
p3073
aS'justyn.thompson@enron.com'
p3074
aS'abenton@utilicorp.com'
p3075
aS'venita.coleman@enron.com'
p3076
aS'jeff.king@enron.com'
p3077
aS'judi.vogel@cmenergy.com'
p3078
aS'palter.lisa@enron.com'
p3079
aS'ron.hozjan@southernenergy.com'
p3080
aS'dlh@nwnatural.com'
p3081
aS'ilan.caplan@enron.com'
p3082
aS'mable.tang@enron.com'
p3083
aS'sjohn@esc17.net'
p3084
aS'cindyk@cook-inlet.com'
p3085
aS'david.roland@enron.com'
p3086
aS'judy@progas.com'
p3087
aS'parsley.louise@enron.com'
p3088
aS'lillian.rios@enron.com'
p3089
aS'k..ratnala@enron.com'
p3090
aS'alli.parent@enron.com'
p3091
aS'denise.furey@enron.com'
p3092
aS'cecilia.porras@enron.com'
p3093
aS'robert.badeer@enron.com'
p3094
aS'easton.matthew@enron.com'
p3095
aS'erwin.landivar@enron.com'
p3096
aS'stanley.cocke@enron.com'
p3097
aS'j..broderick@enron.com'
p3098
aS'd..baughman@enron.com'
p3099
aS'jungsuk.suh@enron.com'
p3100
aS'chris.mallory@enron.com'
p3101
aS'rawsons4@aol.com'
p3102
aS'tom.hartsoe@enron.com'
p3103
aS'john.house@enron.com'
p3104
aS'jill.froman@osc.com'
p3105
aS'tbrown@br-inc.com'
p3106
aS'jung-suk.suh@enron.com'
p3107
aS'wade.koteras@enron.com'
p3108
aS'talamini.bob@enron.com'
p3109
aS'lorie.hernandez@enron.com'
p3110
aS'sara.shackleton@enron.com'
p3111
aS'lryall@worldnet.att.net'
p3112
aS'stewart.rosman@enron.com'
p3113
aS'robert.harp@cmenergy.com'
p3114
aS'jenkindm@bp.com'
p3115
aS'johnston@tristar-gas.com'
p3116
aS'oasissvcs@apsc.com'
p3117
aS'kmorrow@bcgas.com'
p3118
aS'therald@wt.net'
p3119
aS'danielle.dees@enron.com'
p3120
aS'stuart.staley@enron.com'
p3121
aS'bossola.tanya@enron.com'
p3122
aS'david.steiner@enron.com'
p3123
aS'maureen.smith@enron.com'
p3124
aS'nita.garcia@enron.com'
p3125
aS'jae.black@enron.com'
p3126
aS'hal.mckinney@enron.com'
p3127
aS'hicham.benjelloun@enron.com'
p3128
aS'jennifer.nguyen@enron.com'
p3129
aS'ruthe.newman@enron.com'
p3130
aS'william.st.@enron.com'
p3131
aS'vladimir.gorny@enron.com'
p3132
aS'daniel.muschar@enron.com'
p3133
aS'lisa.honey@enron.com'
p3134
aS'wgpw.businessdvp@wgp.twc.com'
p3135
aS'mark.bernstein@enron.com'
p3136
aS'b..boxx@enron.com'
p3137
aS'janelle.scheuer@enron.com'
p3138
aS'john.llodra@enron.com'
p3139
aS'sally.beck@enron.com'
p3140
aS'deborah.kelly@enron.com'
p3141
aS'john@pgsenergy.com'
p3142
aS'j.pinckney@enron.com'
p3143
aS'simon.chris@enron.com'
p3144
aS'jburton@utilicorp.com'
p3145
aS'susan.smith@enron.com'
p3146
aS'j..wolfe@enron.com'
p3147
aS'catalina.ayala-nelson@enron.com'
p3148
aS'cholm@sppc.com'
p3149
aS'eric.holzer@enron.com'
p3150
aS'daniel.falcone@enron.com'
p3151
aS'michael.robertson@enron.com'
p3152
aS'jordan.marye@enron.com'
p3153
aS'danny.foster@enron.com'
p3154
aS'ted.murphy@enron.com'
p3155
aS'josephine.logan@enron.com'
p3156
aS'scimmonsj@epenergy.com'
p3157
aS'phil.demoes@enron.com'
p3158
aS'matthew.guinn@enron.com'
p3159
aS'jr..legal@enron.com'
p3160
aS'phoenix@equiserve.com'
p3161
aS'jonathan.horne@enron.com'
p3162
aS'cdeleon202@hotmail.com'
p3163
aS'mmcmahon@avistacorp.com'
p3164
aS'errol.mclaughlin@enron.com'
p3165
aS'pdamico@pcenergy.com'
p3166
aS'joseph.f.reid@accenture.com'
p3167
aS'jim.pyke@enron.com'
p3168
aS'houston.product@enron.com'
p3169
aS'ajay.jagsi@enron.com'
p3170
aS'jennifer.jennings@enron.com'
p3171
aS'kyle.berryman@enron.com'
p3172
aS'di.mu@enron.com'
p3173
aS'mazana@enron.com'
p3174
aS'frank.billington@oatiinc.com'
p3175
aS'dina.snow@enron.com'
p3176
aS'claudia.guerra@enron.com'
p3177
aS'christopher.lovisone@enron.com'
p3178
aS'mauricio.mora@enron.com'
p3179
aS'd..curry@enron.com'
p3180
aS'bradb@calpine.com'
p3181
aS'steven.curlee@enron.com'
p3182
aS'cwduke@duke-energy.com'
p3183
aS'users2.dl-enron@enron.com'
p3184
aS'bsitz@mail.utexas.edu'
p3185
aS'neithard.foley@enron.com'
p3186
aS'paul.parrish@enron.com'
p3187
aS'michael.finger@enron.com'
p3188
aS'mark.schmidt@enron.com'
p3189
aS'norm.spalding@enron.com'
p3190
aS'murrinnl@bp.com'
p3191
aS'meo2@pge.com'
p3192
aS'kline.nancy@enron.com'
p3193
aS'lewis.dixon@enron.com'
p3194
aS'msmith@enron.com'
p3195
aS'luis.velez@enron.com'
p3196
aS'glock78503@aol.com'
p3197
aS'richard.shapiro@enron.com'
p3198
aS'lgoodric@cngc.com'
p3199
aS'veronica.gonzalez@enron.com'
p3200
aS'martin.rees@enron.com'
p3201
aS'julie.flahaven@enron.com'
p3202
aS'george.rahal@acnpower.com'
p3203
aS'janice.moore@enron.com'
p3204
aS'saguilar@coral-energy.com'
p3205
aS'mo.bawa@enron.com'
p3206
aS'dft1@pge.com'
p3207
aS'marie.smith@enron.com'
p3208
aS'steuber.c.@enron.com'
p3209
aS'fritsch.michelle@enron.com'
p3210
aS'steve.schneider@enron.com'
p3211
aS'eemainzer@bpa.gov'
p3212
aS'murli.nagwani@enron.com'
p3213
aS'jennifer.reside@enron.com'
p3214
aS'paul.broderick@enron.com'
p3215
aS'rebubba@t-online.de'
p3216
aS'debra.perlingiere@enron.com'
p3217
aS'paulpdx@msn.com'
p3218
aS'bryan.williams@enron.com'
p3219
aS'michelle.cash@enron.com'
p3220
aS'michelle.gross@enron.com'
p3221
aS'patrice.mims@enron.com'
p3222
aS'paulsen@wapa.gov'
p3223
aS'ina.rangel@enron.com'
p3224
aS'jeff.stephens@enron.com'
p3225
aS'dorothy.woster@enron.com'
p3226
aS'sherry.meyers@enron.com'
p3227
aS'keith.leblanc@enron.com'
p3228
aS'michael.olsen@enron.com'
p3229
aS'iris.mack@enron.com'
p3230
aS'jmh6409@idahopower.com'
p3231
aS'gwyn.koepke@enron.com'
p3232
aS'laurie.mayer@enron.com'
p3233
aS'michael.swaim@enron.com'
p3234
aS'courtney.mcmillian@enron.com'
p3235
aS'joni.fisher@enron.com'
p3236
aS'david.parquet@enron.com'
p3237
aS'stephanie.segura@enron.com'
p3238
aS'g..connevey@enron.com'
p3239
aS'james.marks@enron.com'
p3240
aS'd..powell@enron.com'
p3241
aS'karen.herrmann@enron.com'
p3242
aS'mikeal.stec@apachecorp.com'
p3243
aS'karen.davis@enron.com'
p3244
aS'e-mail'
p3245
aS'chris.loehr@enron.com'
p3246
aS'derek.danyliw@husky-oil.com'
p3247
aS'thomas.nestor@enron.com'
p3248
aS'jefferson.sorenson@enron.com'
p3249
aS'john.oh@enron.com'
p3250
aS'kswett@tmvgas.com'
p3251
aS'cmcgra@puget.com'
p3252
aS'm..lohmann@enron.com'
p3253
aS'douglas.fuehne@enron.com'
p3254
aS'users5.dl-enron@enron.com'
p3255
aS'jane@scana.com'
p3256
aS'chris.jantz@enron.com'
p3257
aS'nadia.herb@enron.com'
p3258
aS'kelly.mccoy@enron.com'
p3259
aS'emily.schwarzbach@enron.com'
p3260
aS'john.gorman@enron.com'
p3261
aS'bridgette.anderson@enron.com'
p3262
aS'development.dl-isc@enron.com'
p3263
aS'w..white@enron.com'
p3264
aS'beth.perlman@enron.com'
p3265
aS'stacey.ramsay@enron.com'
p3266
aS'bartneea@bp.com'
p3267
aS'barend.vanderhorst@enron.com'
p3268
aS'scott.griffin@enron.com'
p3269
aS'sherry_hill@transcanada.com'
p3270
aS'dana.smith@enron.com'
p3271
aS'billy.braddock@enron.com'
p3272
aS'brent.price@enron.com'
p3273
aS'kayne.coulter@enron.com'
p3274
aS'david.scott@newpower.com'
p3275
aS'phil.polsky@enron.com'
p3276
aS'pkginfo@ups.com'
p3277
aS'howard.fromer@enron.com'
p3278
aS'michael.g.mori@williams.com'
p3279
aS'bobbrown@pics.net'
p3280
aS'evelyn.metoyer@enron.com'
p3281
aS'chris.germany@enron.com'
p3282
aS'jg77063@aol.com'
p3283
aS'invoice.inquiry@mindspring.com'
p3284
aS'jeremy.wong@enron.com'
p3285
aS'gnunnema@utilicorp.com'
p3286
aS'hankd@calpine.com'
p3287
aS'ddparlow@aol.com'
p3288
aS'banu.ozcan@enron.com'
p3289
aS'zarin.imam@enron.com'
p3290
aS'jtracy@coral-energy.com'
p3291
aS'tiffany.smith@enron.com'
p3292
aS'moln@chevron.com'
p3293
aS'greg.wolfe@enron.com'
p3294
aS'priese.fred@enron.com'
p3295
aS'chairman.ken@enron.com'
p3296
aS'marie.heard@enron.com'
p3297
aS'robert.laurel@enron.com'
p3298
aS'barbara.dillard@enron.com'
p3299
aS'darren.cavanaugh@enron.com'
p3300
aS'scott.naomi@enron.com'
p3301
aS'marvin.paul@enron.com'
p3302
aS'jeffery.ader@enron.com'
p3303
aS'rcrowley@coral-energy.com'
p3304
aS'tomforde.jim@enron.com'
p3305
aS'12007@enron.com'
p3306
aS'syed.ahmed@enron.com'
p3307
aS'rick.perkins@enron.com'
p3308
aS'michael.robison@enron.com'
p3309
aS'matthew.lenhart@enron.com'
p3310
aS'tom.ginsbach@enron.com'
p3311
aS'roberto.conterno@enron.com'
p3312
aS'min.zheng@enron.com'
p3313
aS'ethel.koskas@enron.com'
p3314
aS'carol-taylor@coastenergy.com'
p3315
aS'dave.perrino@enron.com'
p3316
aS'rkunz@idahopower.com'
p3317
aS'lorraine.becker@enron.com'
p3318
aS'ashish.mahajan@enron.com'
p3319
aS'adrian.woolcock@enron.com'
p3320
aS'russell.dyk@enron.com'
p3321
aS'nicole.pineda@enron.com'
p3322
aS'jennifer.stewart@enron.com'
p3323
aS'serena.bishop@enron.com'
p3324
aS'lsilva@ci.glendale.ca.us'
p3325
aS'p..oneil@enron.com'
p3326
aS'bob.shults@enron.com'
p3327
aS'daniel.diamond@enron.com'
p3328
aS'finkowski.jayne@enron.com'
p3329
aS'lee.huber@enron.com'
p3330
aS'vince.crescenzi@gfinet.com'
p3331
aS'bryan.benbow@enron.com'
p3332
aS'craig.provenzano@powersrc.com'
p3333
aS'jeffrey.snyder@enron.com'
p3334
aS'janet.vala-terry@enron.com'
p3335
aS'miller.jackie@enron.com'
p3336
aS'lisa.valderrama@enron.com'
p3337
aS'angie.zeman@enron.com'
p3338
aS'jim.cashion@enron.com'
p3339
aS'susan.edison@enron.com'
p3340
aS'mshoemaker@bcgas.com'
p3341
aS'mauel.joan@enron.com'
p3342
aS'scott.tanner@truequote.com'
p3343
aS'john.walt@enron.com'
p3344
aS'kbbaker@ppco.com'
p3345
aS'ed.gregory@sait.ab.ca'
p3346
aS'donald.angeletti@enron.com'
p3347
aS'gareth.simpson@enron.com'
p3348
aS'angie.chappell@enron.com'
p3349
aS'mweaver@txcyber.com'
p3350
aS'jana.mills@enron.com'
p3351
aS'robert.virnau@enron.com'
p3352
aS'joel.valdez@enron.com'
p3353
aS'gary.collins@vintagetul.com'
p3354
aS'sarah.bruck@enron.com'
p3355
aS'boals.kyle@enron.com'
p3356
aS'scott.linkletter@neg.pge.com'
p3357
aS'becky.young@enron.com'
p3358
aS'marion.sczykutowicz@enron.com'
p3359
aS'israel.estrada@enron.com'
p3360
aS'luiz.maurer@enron.com'
p3361
aS'rriehm@br-inc.com'
p3362
aS'diel.terry@enron.com'
p3363
aS'marie.dunn@pdq.net'
p3364
aS'martin.sonesson@enron.com'
p3365
aS'vogel.jacqueline@enron.com'
p3366
aS'sherry.dupont@enron.com'
p3367
aS'corry.bentley@enron.com'
p3368
aS'sean.boyle@enron.com'
p3369
aS'20730-4580@williams.com'
p3370
aS'gordon.heaney@enron.com'
p3371
aS'george.hope@enron.com'
p3372
aS'oasis502@apsc.com'
p3373
aS'bkcegenergy@sk.sympatico.ca'
p3374
aS'20366-4932@williams.com'
p3375
aS'mike.grubbs@enron.com'
p3376
aS'r27009@mail.gr'
p3377
aS'chonawee.supatgiat@enron.com'
p3378
aS'jason.kaniss@enron.com'
p3379
atRp3380
.